	.section	__TEXT,__text,regular,pure_instructions
	.macosx_version_min 10, 11
	.file	1 "c_posix.c"
	.file	2 "/usr/include/i386" "_types.h"
	.file	3 "/usr/include/sys" "_types.h"
	.file	4 "/usr/include/sys/_types" "_pid_t.h"
	.globl	_main
	.align	4, 0x90
_main:                                  ## @main
Lfunc_begin0:
	.loc	1 366 0                 ## c_posix.c:366:0
	.cfi_startproc
## BB#0:
	pushq	%rbp
Ltmp0:
	.cfi_def_cfa_offset 16
Ltmp1:
	.cfi_offset %rbp, -16
	movq	%rsp, %rbp
Ltmp2:
	.cfi_def_cfa_register %rbp
	pushq	%r15
	pushq	%r14
	pushq	%r13
	pushq	%r12
	pushq	%rbx
	subq	$2552, %rsp             ## imm = 0x9F8
Ltmp3:
	.cfi_offset %rbx, -56
Ltmp4:
	.cfi_offset %r12, -48
Ltmp5:
	.cfi_offset %r13, -40
Ltmp6:
	.cfi_offset %r14, -32
Ltmp7:
	.cfi_offset %r15, -24
	##DEBUG_VALUE: main:argc <- %EDI
	##DEBUG_VALUE: main:argv <- %RSI
	movq	%rsi, -2528(%rbp)       ## 8-byte Spill
Ltmp8:
	##DEBUG_VALUE: main:argv <- [%RBP+-2528]
	movq	___stack_chk_guard@GOTPCREL(%rip), %rax
	movq	(%rax), %rax
	movq	%rax, -48(%rbp)
Ltmp9:
	##DEBUG_VALUE: main:built_in_command <- 0
	##DEBUG_VALUE: main:isBackground <- 0
	##DEBUG_VALUE: main:i <- 0
	##DEBUG_VALUE: main:argc2 <- 0
	.loc	1 381 11 prologue_end   ## c_posix.c:381:11
	movaps	l_main.printenv(%rip), %xmm0
	movaps	%xmm0, -2304(%rbp)
	.loc	1 382 11                ## c_posix.c:382:11
	movaps	l_main.sort(%rip), %xmm0
	movaps	%xmm0, -2320(%rbp)
	.loc	1 383 11                ## c_posix.c:383:11
	movaps	l_main.pager_cmd(%rip), %xmm0
	movaps	%xmm0, -2336(%rbp)
Ltmp10:
	##DEBUG_VALUE: main:status <- 0
	.loc	1 386 9                 ## c_posix.c:386:9
	movl	$0, -2404(%rbp)
Ltmp11:
	##DEBUG_VALUE: main:breakloop <- 0
	##DEBUG_VALUE: main:len <- 1
	##DEBUG_VALUE: main:pos <- 0
	##DEBUG_VALUE: main:max <- 80
	xorps	%xmm0, %xmm0
	.loc	1 409 5                 ## c_posix.c:409:5
	movaps	%xmm0, -2464(%rbp)
Ltmp12:
	##DEBUG_VALUE: main:pid_temp <- 0
	.loc	1 412 21                ## c_posix.c:412:21
	leaq	_sighandler(%rip), %rax
	movq	%rax, -2464(%rbp)
	.loc	1 413 17                ## c_posix.c:413:17
	movl	$64, -2452(%rbp)
	leaq	-2464(%rbp), %rsi
Ltmp13:
	##DEBUG_VALUE: main:sa <- [%RSI+0]
	leaq	-2480(%rbp), %rdx
Ltmp14:
	##DEBUG_VALUE: main:osa <- [%RDX+0]
	.loc	1 414 5                 ## c_posix.c:414:5
	movl	$2, %edi
Ltmp15:
	callq	_sigaction
	.loc	1 417 17                ## c_posix.c:417:17
	leaq	L_.str.4(%rip), %rdi
	callq	_getenv
	movq	%rax, %rbx
Ltmp16:
	##DEBUG_VALUE: main:pathValue <- %RBX
	.loc	1 418 9                 ## c_posix.c:418:9
	testq	%rbx, %rbx
	je	LBB0_1
Ltmp17:
## BB#2:
	##DEBUG_VALUE: main:argc <- %EDI
	##DEBUG_VALUE: main:argv <- [%RBP+-2528]
	##DEBUG_VALUE: main:argc2 <- 0
	##DEBUG_VALUE: main:i <- 0
	##DEBUG_VALUE: main:isBackground <- 0
	##DEBUG_VALUE: main:built_in_command <- 0
	##DEBUG_VALUE: main:status <- 0
	##DEBUG_VALUE: main:max <- 80
	##DEBUG_VALUE: main:pos <- 0
	##DEBUG_VALUE: main:len <- 1
	##DEBUG_VALUE: main:breakloop <- 0
	##DEBUG_VALUE: main:pid_temp <- 0
	##DEBUG_VALUE: main:pathValue <- %RBX
	.loc	1 424 9                 ## c_posix.c:424:9
	leaq	L_.str.6(%rip), %rdi
Ltmp18:
	leaq	L_.str.4(%rip), %rsi
	xorl	%eax, %eax
	movq	%rbx, %rdx
	callq	_printf
	jmp	LBB0_3
Ltmp19:
LBB0_1:
	##DEBUG_VALUE: main:argc <- %EDI
	##DEBUG_VALUE: main:argv <- [%RBP+-2528]
	##DEBUG_VALUE: main:argc2 <- 0
	##DEBUG_VALUE: main:i <- 0
	##DEBUG_VALUE: main:isBackground <- 0
	##DEBUG_VALUE: main:built_in_command <- 0
	##DEBUG_VALUE: main:status <- 0
	##DEBUG_VALUE: main:max <- 80
	##DEBUG_VALUE: main:pos <- 0
	##DEBUG_VALUE: main:len <- 1
	##DEBUG_VALUE: main:breakloop <- 0
	##DEBUG_VALUE: main:pid_temp <- 0
	##DEBUG_VALUE: main:pathValue <- %RBX
	.loc	1 420 9                 ## c_posix.c:420:9
	leaq	L_.str.5(%rip), %rdi
Ltmp20:
	leaq	L_.str.4(%rip), %rsi
	xorl	%eax, %eax
	callq	_printf
Ltmp21:
LBB0_3:
	##DEBUG_VALUE: main:argc <- %EDI
	##DEBUG_VALUE: main:argv <- [%RBP+-2528]
	##DEBUG_VALUE: main:argc2 <- 0
	##DEBUG_VALUE: main:i <- 0
	##DEBUG_VALUE: main:isBackground <- 0
	##DEBUG_VALUE: main:built_in_command <- 0
	##DEBUG_VALUE: main:status <- 0
	##DEBUG_VALUE: main:max <- 80
	##DEBUG_VALUE: main:pos <- 0
	##DEBUG_VALUE: main:len <- 1
	##DEBUG_VALUE: main:breakloop <- 0
	##DEBUG_VALUE: main:pid_temp <- 0
	##DEBUG_VALUE: main:pathValue <- %RBX
	.loc	1 427 18                ## c_posix.c:427:18
	movq	%rbx, %rdi
Ltmp22:
	callq	_strdup
Ltmp23:
	##DEBUG_VALUE: main:pathValue2 <- %RAX
	.loc	1 428 14                ## c_posix.c:428:14
	movq	%rax, -2488(%rbp)       ## 8-byte Spill
	leaq	L_.str.7(%rip), %rsi
	movq	%rax, %rdi
Ltmp24:
	##DEBUG_VALUE: main:pathValue2 <- [%RBP+-2488]
	callq	_strtok
	movq	%rax, %r14
Ltmp25:
	##DEBUG_VALUE: main:ret <- 1
	##DEBUG_VALUE: main:token3 <- %R14
	.loc	1 430 19                ## c_posix.c:430:19
	testq	%r14, %r14
	movl	$1, %eax
	je	LBB0_10
Ltmp26:
## BB#4:                                ## %.lr.ph30
	##DEBUG_VALUE: main:argc <- %EDI
	##DEBUG_VALUE: main:argv <- [%RBP+-2528]
	##DEBUG_VALUE: main:argc2 <- 0
	##DEBUG_VALUE: main:i <- 0
	##DEBUG_VALUE: main:isBackground <- 0
	##DEBUG_VALUE: main:built_in_command <- 0
	##DEBUG_VALUE: main:status <- 0
	##DEBUG_VALUE: main:max <- 80
	##DEBUG_VALUE: main:pos <- 0
	##DEBUG_VALUE: main:len <- 1
	##DEBUG_VALUE: main:breakloop <- 0
	##DEBUG_VALUE: main:pid_temp <- 0
	##DEBUG_VALUE: main:pathValue2 <- [%RBP+-2488]
	##DEBUG_VALUE: main:token3 <- %R14
	##DEBUG_VALUE: main:ret <- 1
	.loc	1 453 18                ## c_posix.c:453:18
	leaq	L_.str.7(%rip), %r12
	leaq	-192(%rbp), %r13
Ltmp27:
	.align	4, 0x90
LBB0_5:                                 ## =>This Inner Loop Header: Depth=1
	##DEBUG_VALUE: main:argc <- %EDI
	##DEBUG_VALUE: main:argv <- [%RBP+-2528]
	##DEBUG_VALUE: main:argc2 <- 0
	##DEBUG_VALUE: main:i <- 0
	##DEBUG_VALUE: main:isBackground <- 0
	##DEBUG_VALUE: main:built_in_command <- 0
	##DEBUG_VALUE: main:status <- 0
	##DEBUG_VALUE: main:max <- 80
	##DEBUG_VALUE: main:pos <- 0
	##DEBUG_VALUE: main:len <- 1
	##DEBUG_VALUE: main:breakloop <- 0
	##DEBUG_VALUE: main:pid_temp <- 0
	##DEBUG_VALUE: main:pathValue2 <- [%RBP+-2488]
	##DEBUG_VALUE: main:ret <- 1
	.loc	1 432 31                ## c_posix.c:432:31
	movq	%r14, %rdi
Ltmp28:
	callq	_strlen
	.loc	1 432 64 is_stmt 0      ## c_posix.c:432:64
	leaq	6(%rax), %rdi
	.loc	1 432 24                ## c_posix.c:432:24
	callq	_malloc
	movq	%rax, %r15
Ltmp29:
	##DEBUG_VALUE: main:new_str <- %R15
	##DEBUG_VALUE: file_exist:filename <- %R15
	.loc	1 432 70                ## c_posix.c:432:70
	testq	%r15, %r15
Ltmp30:
	.loc	1 432 13                ## c_posix.c:432:13
	je	LBB0_7
Ltmp31:
## BB#6:                                ##   in Loop: Header=BB0_5 Depth=1
	##DEBUG_VALUE: main:argc <- %EDI
	##DEBUG_VALUE: main:argv <- [%RBP+-2528]
	##DEBUG_VALUE: main:argc2 <- 0
	##DEBUG_VALUE: main:i <- 0
	##DEBUG_VALUE: main:isBackground <- 0
	##DEBUG_VALUE: main:built_in_command <- 0
	##DEBUG_VALUE: main:status <- 0
	##DEBUG_VALUE: main:max <- 80
	##DEBUG_VALUE: main:pos <- 0
	##DEBUG_VALUE: main:len <- 1
	##DEBUG_VALUE: main:breakloop <- 0
	##DEBUG_VALUE: main:pid_temp <- 0
	##DEBUG_VALUE: main:pathValue2 <- [%RBP+-2488]
	##DEBUG_VALUE: main:ret <- 1
	##DEBUG_VALUE: file_exist:filename <- %R15
	##DEBUG_VALUE: main:new_str <- %R15
	.loc	1 434 24 is_stmt 1      ## c_posix.c:434:24
	movb	$0, (%r15)
	.loc	1 435 13                ## c_posix.c:435:13
	movq	$-1, %rdx
	movq	%r15, %rdi
Ltmp32:
	movq	%r14, %rsi
	callq	___strcat_chk
	movq	$-1, %rdx
	.loc	1 436 13                ## c_posix.c:436:13
	movq	%r15, %rdi
	leaq	L_.str.8(%rip), %rsi
	callq	___strcat_chk
Ltmp33:
	##DEBUG_VALUE: file_exist:buffer <- [%R13+0]
	.loc	1 353 12                ## c_posix.c:353:12
	movq	%r15, %rdi
	movq	%r13, %rsi
	callq	_stat$INODE64
	movl	%eax, %ebx
Ltmp34:
	##DEBUG_VALUE: main:ret <- 0
	##DEBUG_VALUE: main:breakloop <- 1
	.loc	1 443 13                ## c_posix.c:443:13
	movq	%r15, %rdi
	callq	_free
	xorl	%eax, %eax
	.loc	1 353 36                ## c_posix.c:353:36
Ltmp35:
	testl	%ebx, %ebx
	jne	LBB0_8
	jmp	LBB0_10
Ltmp36:
	.align	4, 0x90
LBB0_7:                                 ##   in Loop: Header=BB0_5 Depth=1
	##DEBUG_VALUE: main:argc <- %EDI
	##DEBUG_VALUE: main:argv <- [%RBP+-2528]
	##DEBUG_VALUE: main:argc2 <- 0
	##DEBUG_VALUE: main:i <- 0
	##DEBUG_VALUE: main:isBackground <- 0
	##DEBUG_VALUE: main:built_in_command <- 0
	##DEBUG_VALUE: main:status <- 0
	##DEBUG_VALUE: main:max <- 80
	##DEBUG_VALUE: main:pos <- 0
	##DEBUG_VALUE: main:len <- 1
	##DEBUG_VALUE: main:breakloop <- 0
	##DEBUG_VALUE: main:pid_temp <- 0
	##DEBUG_VALUE: main:pathValue2 <- [%RBP+-2488]
	##DEBUG_VALUE: main:ret <- 1
	.loc	1 451 13                ## c_posix.c:451:13
	leaq	L_str(%rip), %rdi
Ltmp37:
	callq	_puts
Ltmp38:
LBB0_8:                                 ##   in Loop: Header=BB0_5 Depth=1
	##DEBUG_VALUE: main:argc <- %EDI
	##DEBUG_VALUE: main:argv <- [%RBP+-2528]
	##DEBUG_VALUE: main:argc2 <- 0
	##DEBUG_VALUE: main:i <- 0
	##DEBUG_VALUE: main:isBackground <- 0
	##DEBUG_VALUE: main:built_in_command <- 0
	##DEBUG_VALUE: main:status <- 0
	##DEBUG_VALUE: main:max <- 80
	##DEBUG_VALUE: main:pos <- 0
	##DEBUG_VALUE: main:len <- 1
	##DEBUG_VALUE: main:breakloop <- 0
	##DEBUG_VALUE: main:pid_temp <- 0
	##DEBUG_VALUE: main:pathValue2 <- [%RBP+-2488]
	##DEBUG_VALUE: main:ret <- 1
	xorl	%edi, %edi
Ltmp39:
	.loc	1 453 18                ## c_posix.c:453:18
	movq	%r12, %rsi
	callq	_strtok
	movq	%rax, %r14
Ltmp40:
	##DEBUG_VALUE: main:token3 <- %R14
	.loc	1 430 5                 ## c_posix.c:430:5
	testq	%r14, %r14
	jne	LBB0_5
Ltmp41:
## BB#9:
	##DEBUG_VALUE: main:argc <- %EDI
	##DEBUG_VALUE: main:argv <- [%RBP+-2528]
	##DEBUG_VALUE: main:argc2 <- 0
	##DEBUG_VALUE: main:i <- 0
	##DEBUG_VALUE: main:isBackground <- 0
	##DEBUG_VALUE: main:built_in_command <- 0
	##DEBUG_VALUE: main:status <- 0
	##DEBUG_VALUE: main:max <- 80
	##DEBUG_VALUE: main:pos <- 0
	##DEBUG_VALUE: main:len <- 1
	##DEBUG_VALUE: main:breakloop <- 0
	##DEBUG_VALUE: main:pid_temp <- 0
	##DEBUG_VALUE: main:pathValue2 <- [%RBP+-2488]
	##DEBUG_VALUE: main:ret <- 1
	movl	$1, %eax
Ltmp42:
LBB0_10:                                ## %._crit_edge.31
	##DEBUG_VALUE: main:argc <- %EDI
	##DEBUG_VALUE: main:argv <- [%RBP+-2528]
	##DEBUG_VALUE: main:argc2 <- 0
	##DEBUG_VALUE: main:i <- 0
	##DEBUG_VALUE: main:isBackground <- 0
	##DEBUG_VALUE: main:built_in_command <- 0
	##DEBUG_VALUE: main:status <- 0
	##DEBUG_VALUE: main:max <- 80
	##DEBUG_VALUE: main:pos <- 0
	##DEBUG_VALUE: main:len <- 1
	##DEBUG_VALUE: main:breakloop <- 0
	##DEBUG_VALUE: main:pid_temp <- 0
	##DEBUG_VALUE: main:pathValue2 <- [%RBP+-2488]
	##DEBUG_VALUE: main:ret <- 1
	movl	%eax, -2532(%rbp)       ## 4-byte Spill
	.loc	1 455 5                 ## c_posix.c:455:5
	movq	-2488(%rbp), %rdi       ## 8-byte Reload
Ltmp43:
	callq	_free
	leaq	-192(%rbp), %r15
	.loc	1 321 25                ## c_posix.c:321:25
Ltmp44:
	leaq	L_.str.28(%rip), %r13
Ltmp45:
	.loc	1 117 9                 ## c_posix.c:117:9
	leaq	L_.str.44(%rip), %r12
	movl	$0, -2516(%rbp)         ## 4-byte Folded Spill
	jmp	LBB0_11
LBB0_116:                               ##   in Loop: Header=BB0_11 Depth=1
	leaq	L_.str.44(%rip), %r12
Ltmp46:
	##DEBUG_VALUE: main:argc <- %EDI
	##DEBUG_VALUE: main:argv <- [%RBP+-2528]
	##DEBUG_VALUE: main:argc2 <- 0
	##DEBUG_VALUE: main:i <- 0
	##DEBUG_VALUE: main:isBackground <- 0
	##DEBUG_VALUE: main:built_in_command <- 0
	##DEBUG_VALUE: main:status <- 0
	##DEBUG_VALUE: main:max <- 80
	##DEBUG_VALUE: main:pos <- 0
	##DEBUG_VALUE: main:len <- 1
	##DEBUG_VALUE: main:breakloop <- 0
	##DEBUG_VALUE: main:pid_temp <- 0
	##DEBUG_VALUE: main:ret <- 1
	.loc	1 464 9                 ## c_posix.c:464:9
	movl	$1024, %esi             ## imm = 0x400
	leaq	-1248(%rbp), %rdi
Ltmp47:
	.loc	1 683 9                 ## c_posix.c:683:9
	callq	___bzero
	.align	4, 0x90
LBB0_11:                                ## =>This Loop Header: Depth=1
                                        ##     Child Loop BB0_12 Depth 2
                                        ##     Child Loop BB0_18 Depth 2
                                        ##     Child Loop BB0_23 Depth 2
                                        ##     Child Loop BB0_65 Depth 2
                                        ##     Child Loop BB0_75 Depth 2
                                        ##     Child Loop BB0_78 Depth 2
                                        ##     Child Loop BB0_82 Depth 2
                                        ##     Child Loop BB0_91 Depth 2
                                        ##       Child Loop BB0_93 Depth 3
                                        ##     Child Loop BB0_102 Depth 2
                                        ##     Child Loop BB0_109 Depth 2
Ltmp48:
	##DEBUG_VALUE: main:argc <- %EDI
	##DEBUG_VALUE: main:argv <- [%RBP+-2528]
	##DEBUG_VALUE: main:argc2 <- 0
	##DEBUG_VALUE: main:i <- 0
	##DEBUG_VALUE: main:isBackground <- 0
	##DEBUG_VALUE: main:built_in_command <- 0
	##DEBUG_VALUE: main:status <- 0
	##DEBUG_VALUE: main:max <- 80
	##DEBUG_VALUE: main:pos <- 0
	##DEBUG_VALUE: main:len <- 1
	##DEBUG_VALUE: main:breakloop <- 0
	##DEBUG_VALUE: main:pid_temp <- 0
	##DEBUG_VALUE: main:ret <- 1
	##DEBUG_VALUE: Janitor:status <- 20
	.loc	1 461 9                 ## c_posix.c:461:9
	movl	$20, -192(%rbp)
	jmp	LBB0_12
Ltmp49:
	.align	4, 0x90
LBB0_15:                                ##   in Loop: Header=BB0_12 Depth=2
	##DEBUG_VALUE: main:argc <- %EDI
	##DEBUG_VALUE: main:argv <- [%RBP+-2528]
	##DEBUG_VALUE: main:argc2 <- 0
	##DEBUG_VALUE: main:i <- 0
	##DEBUG_VALUE: main:isBackground <- 0
	##DEBUG_VALUE: main:built_in_command <- 0
	##DEBUG_VALUE: main:status <- 0
	##DEBUG_VALUE: main:max <- 80
	##DEBUG_VALUE: main:pos <- 0
	##DEBUG_VALUE: main:len <- 1
	##DEBUG_VALUE: main:breakloop <- 0
	##DEBUG_VALUE: main:pid_temp <- 0
	##DEBUG_VALUE: main:ret <- 1
	##DEBUG_VALUE: Janitor:status <- 20
	##DEBUG_VALUE: a <- 1
	##DEBUG_VALUE: Janitor:status <- [%R15+0]
	xorl	%eax, %eax
	.loc	1 321 25                ## c_posix.c:321:25
Ltmp50:
	movq	%r13, %rdi
Ltmp51:
	movl	%ecx, %esi
	callq	_printf
Ltmp52:
LBB0_12:                                ##   Parent Loop BB0_11 Depth=1
                                        ## =>  This Inner Loop Header: Depth=2
	##DEBUG_VALUE: Janitor:status <- [%R15+0]
	##DEBUG_VALUE: a <- 1
	.loc	1 308 29                ## c_posix.c:308:29
	movl	$-1, %edi
	movl	$1, %edx
	movq	%r15, %rsi
	callq	_waitpid
	movl	%eax, %ecx
Ltmp53:
	##DEBUG_VALUE: pid_my1 <- %ECX
	.loc	1 313 17                ## c_posix.c:313:17
	testl	%ecx, %ecx
	jle	LBB0_16
Ltmp54:
## BB#13:                               ## %.lr.ph
                                        ##   in Loop: Header=BB0_12 Depth=2
	##DEBUG_VALUE: main:argc <- %EDI
	##DEBUG_VALUE: main:argv <- [%RBP+-2528]
	##DEBUG_VALUE: main:argc2 <- 0
	##DEBUG_VALUE: main:i <- 0
	##DEBUG_VALUE: main:isBackground <- 0
	##DEBUG_VALUE: main:built_in_command <- 0
	##DEBUG_VALUE: main:status <- 0
	##DEBUG_VALUE: main:max <- 80
	##DEBUG_VALUE: main:pos <- 0
	##DEBUG_VALUE: main:len <- 1
	##DEBUG_VALUE: main:breakloop <- 0
	##DEBUG_VALUE: main:pid_temp <- 0
	##DEBUG_VALUE: main:ret <- 1
	##DEBUG_VALUE: Janitor:status <- 20
	##DEBUG_VALUE: a <- 1
	##DEBUG_VALUE: Janitor:status <- [%R15+0]
	.loc	1 315 21                ## c_posix.c:315:21
	cmpl	_foreground(%rip), %ecx
	je	LBB0_12
Ltmp55:
## BB#14:                               ##   in Loop: Header=BB0_12 Depth=2
	##DEBUG_VALUE: main:argc <- %EDI
	##DEBUG_VALUE: main:argv <- [%RBP+-2528]
	##DEBUG_VALUE: main:argc2 <- 0
	##DEBUG_VALUE: main:i <- 0
	##DEBUG_VALUE: main:isBackground <- 0
	##DEBUG_VALUE: main:built_in_command <- 0
	##DEBUG_VALUE: main:status <- 0
	##DEBUG_VALUE: main:max <- 80
	##DEBUG_VALUE: main:pos <- 0
	##DEBUG_VALUE: main:len <- 1
	##DEBUG_VALUE: main:breakloop <- 0
	##DEBUG_VALUE: main:pid_temp <- 0
	##DEBUG_VALUE: main:ret <- 1
	##DEBUG_VALUE: Janitor:status <- 20
	##DEBUG_VALUE: a <- 1
	##DEBUG_VALUE: Janitor:status <- [%R15+0]
	.loc	1 319 48                ## c_posix.c:319:48
	movl	-192(%rbp), %eax
	.loc	1 319 25 is_stmt 0      ## c_posix.c:319:25
	andl	$127, %eax
	cmpl	$127, %eax
	je	LBB0_12
	jmp	LBB0_15
Ltmp56:
	.align	4, 0x90
LBB0_16:                                ## %Janitor.exit
                                        ##   in Loop: Header=BB0_11 Depth=1
	##DEBUG_VALUE: main:argc <- %EDI
	##DEBUG_VALUE: main:argv <- [%RBP+-2528]
	##DEBUG_VALUE: main:argc2 <- 0
	##DEBUG_VALUE: main:i <- 0
	##DEBUG_VALUE: main:isBackground <- 0
	##DEBUG_VALUE: main:built_in_command <- 0
	##DEBUG_VALUE: main:status <- 0
	##DEBUG_VALUE: main:max <- 80
	##DEBUG_VALUE: main:pos <- 0
	##DEBUG_VALUE: main:len <- 1
	##DEBUG_VALUE: main:breakloop <- 0
	##DEBUG_VALUE: main:pid_temp <- 0
	##DEBUG_VALUE: main:ret <- 1
	xorl	%eax, %eax
	.loc	1 463 9 is_stmt 1       ## c_posix.c:463:9
	leaq	L_.str.10(%rip), %rdi
Ltmp57:
	callq	_printf
	.loc	1 464 9                 ## c_posix.c:464:9
	movl	$1024, %esi             ## imm = 0x400
	leaq	-1248(%rbp), %r14
	movq	%r14, %rdi
	callq	___bzero
	.loc	1 465 38                ## c_posix.c:465:38
Ltmp58:
	movq	___stdinp@GOTPCREL(%rip), %rax
	movq	(%rax), %rdx
	.loc	1 465 14 is_stmt 0      ## c_posix.c:465:14
	movl	$1024, %esi             ## imm = 0x400
	movq	%r14, %rdi
	callq	_fgets
	testq	%rax, %rax
	je	LBB0_117
Ltmp59:
## BB#17:                               ##   in Loop: Header=BB0_11 Depth=1
	##DEBUG_VALUE: main:argc <- %EDI
	##DEBUG_VALUE: main:argv <- [%RBP+-2528]
	##DEBUG_VALUE: main:argc2 <- 0
	##DEBUG_VALUE: main:i <- 0
	##DEBUG_VALUE: main:isBackground <- 0
	##DEBUG_VALUE: main:built_in_command <- 0
	##DEBUG_VALUE: main:status <- 0
	##DEBUG_VALUE: main:max <- 80
	##DEBUG_VALUE: main:pos <- 0
	##DEBUG_VALUE: main:len <- 1
	##DEBUG_VALUE: main:breakloop <- 0
	##DEBUG_VALUE: main:pid_temp <- 0
	##DEBUG_VALUE: main:ret <- 1
	##DEBUG_VALUE: Janitor:status <- 20
	.loc	1 469 9 is_stmt 1       ## c_posix.c:469:9
	movl	$20, -192(%rbp)
	jmp	LBB0_18
Ltmp60:
	.align	4, 0x90
LBB0_21:                                ##   in Loop: Header=BB0_18 Depth=2
	##DEBUG_VALUE: main:argc <- %EDI
	##DEBUG_VALUE: main:argv <- [%RBP+-2528]
	##DEBUG_VALUE: main:argc2 <- 0
	##DEBUG_VALUE: main:i <- 0
	##DEBUG_VALUE: main:isBackground <- 0
	##DEBUG_VALUE: main:built_in_command <- 0
	##DEBUG_VALUE: main:status <- 0
	##DEBUG_VALUE: main:max <- 80
	##DEBUG_VALUE: main:pos <- 0
	##DEBUG_VALUE: main:len <- 1
	##DEBUG_VALUE: main:breakloop <- 0
	##DEBUG_VALUE: main:pid_temp <- 0
	##DEBUG_VALUE: main:ret <- 1
	##DEBUG_VALUE: Janitor:status <- 20
	##DEBUG_VALUE: a <- 1
	##DEBUG_VALUE: Janitor:status <- [%R15+0]
	xorl	%eax, %eax
	.loc	1 321 25                ## c_posix.c:321:25
Ltmp61:
	movq	%r13, %rdi
Ltmp62:
	movl	%ecx, %esi
	callq	_printf
Ltmp63:
LBB0_18:                                ##   Parent Loop BB0_11 Depth=1
                                        ## =>  This Inner Loop Header: Depth=2
	##DEBUG_VALUE: Janitor:status <- [%R15+0]
	##DEBUG_VALUE: a <- 1
	.loc	1 308 29                ## c_posix.c:308:29
	movl	$-1, %edi
	movl	$1, %edx
Ltmp64:
	.loc	1 308 29 is_stmt 0      ## c_posix.c:308:29
	movq	%r15, %rsi
	callq	_waitpid
	movl	%eax, %ecx
Ltmp65:
	##DEBUG_VALUE: pid_my1 <- %ECX
	.loc	1 313 17 is_stmt 1      ## c_posix.c:313:17
	testl	%ecx, %ecx
	jle	LBB0_22
Ltmp66:
## BB#19:                               ## %.lr.ph19
                                        ##   in Loop: Header=BB0_18 Depth=2
	##DEBUG_VALUE: main:argc <- %EDI
	##DEBUG_VALUE: main:argv <- [%RBP+-2528]
	##DEBUG_VALUE: main:argc2 <- 0
	##DEBUG_VALUE: main:i <- 0
	##DEBUG_VALUE: main:isBackground <- 0
	##DEBUG_VALUE: main:built_in_command <- 0
	##DEBUG_VALUE: main:status <- 0
	##DEBUG_VALUE: main:max <- 80
	##DEBUG_VALUE: main:pos <- 0
	##DEBUG_VALUE: main:len <- 1
	##DEBUG_VALUE: main:breakloop <- 0
	##DEBUG_VALUE: main:pid_temp <- 0
	##DEBUG_VALUE: main:ret <- 1
	##DEBUG_VALUE: Janitor:status <- 20
	##DEBUG_VALUE: a <- 1
	##DEBUG_VALUE: Janitor:status <- [%R15+0]
	.loc	1 315 21                ## c_posix.c:315:21
	cmpl	_foreground(%rip), %ecx
	je	LBB0_18
Ltmp67:
## BB#20:                               ##   in Loop: Header=BB0_18 Depth=2
	##DEBUG_VALUE: main:argc <- %EDI
	##DEBUG_VALUE: main:argv <- [%RBP+-2528]
	##DEBUG_VALUE: main:argc2 <- 0
	##DEBUG_VALUE: main:i <- 0
	##DEBUG_VALUE: main:isBackground <- 0
	##DEBUG_VALUE: main:built_in_command <- 0
	##DEBUG_VALUE: main:status <- 0
	##DEBUG_VALUE: main:max <- 80
	##DEBUG_VALUE: main:pos <- 0
	##DEBUG_VALUE: main:len <- 1
	##DEBUG_VALUE: main:breakloop <- 0
	##DEBUG_VALUE: main:pid_temp <- 0
	##DEBUG_VALUE: main:ret <- 1
	##DEBUG_VALUE: Janitor:status <- 20
	##DEBUG_VALUE: a <- 1
	##DEBUG_VALUE: Janitor:status <- [%R15+0]
	.loc	1 319 48                ## c_posix.c:319:48
	movl	-192(%rbp), %eax
	.loc	1 319 25 is_stmt 0      ## c_posix.c:319:25
	andl	$127, %eax
	cmpl	$127, %eax
	je	LBB0_18
	jmp	LBB0_21
Ltmp68:
	.align	4, 0x90
LBB0_22:                                ## %Janitor.exit6
                                        ##   in Loop: Header=BB0_11 Depth=1
	##DEBUG_VALUE: main:argc <- %EDI
	##DEBUG_VALUE: main:argv <- [%RBP+-2528]
	##DEBUG_VALUE: main:argc2 <- 0
	##DEBUG_VALUE: main:i <- 0
	##DEBUG_VALUE: main:isBackground <- 0
	##DEBUG_VALUE: main:built_in_command <- 0
	##DEBUG_VALUE: main:status <- 0
	##DEBUG_VALUE: main:max <- 80
	##DEBUG_VALUE: main:pos <- 0
	##DEBUG_VALUE: main:len <- 1
	##DEBUG_VALUE: main:breakloop <- 0
	##DEBUG_VALUE: main:pid_temp <- 0
	##DEBUG_VALUE: main:ret <- 1
	.loc	1 464 9 is_stmt 1       ## c_posix.c:464:9
	movl	$1024, %edx             ## imm = 0x400
	leaq	-2272(%rbp), %rbx
	.loc	1 470 9                 ## c_posix.c:470:9
	movq	%rbx, %rdi
Ltmp69:
	leaq	-1248(%rbp), %rsi
	callq	_strncpy
	.loc	1 339 12                ## c_posix.c:339:12
Ltmp70:
	movb	-2272(%rbp), %dl
	.loc	1 339 15 is_stmt 0      ## c_posix.c:339:15
	testb	%dl, %dl
Ltmp71:
	.loc	1 457 5 is_stmt 1       ## c_posix.c:457:5
	leaq	-2271(%rbp), %rcx
	.loc	1 471 9                 ## c_posix.c:471:9
Ltmp72:
	movq	%rbx, %rax
	je	LBB0_24
	.align	4, 0x90
LBB0_23:                                ## %.lr.ph.i
                                        ##   Parent Loop BB0_11 Depth=1
                                        ## =>  This Inner Loop Header: Depth=2
Ltmp73:
	##DEBUG_VALUE: main:argc <- %EDI
	##DEBUG_VALUE: main:argv <- [%RBP+-2528]
	##DEBUG_VALUE: main:argc2 <- 0
	##DEBUG_VALUE: main:i <- 0
	##DEBUG_VALUE: main:isBackground <- 0
	##DEBUG_VALUE: main:built_in_command <- 0
	##DEBUG_VALUE: main:status <- 0
	##DEBUG_VALUE: main:max <- 80
	##DEBUG_VALUE: main:pos <- 0
	##DEBUG_VALUE: main:len <- 1
	##DEBUG_VALUE: main:breakloop <- 0
	##DEBUG_VALUE: main:pid_temp <- 0
	##DEBUG_VALUE: main:ret <- 1
	.loc	1 341 12                ## c_posix.c:341:12
	movb	%dl, (%rax)
	.loc	1 342 16                ## c_posix.c:342:16
Ltmp74:
	movzbl	%dl, %edx
	.loc	1 343 14                ## c_posix.c:343:14
	leaq	1(%rax), %rsi
Ltmp75:
	##DEBUG_VALUE: RemoveSpaces:i <- %RAX
	.loc	1 342 16                ## c_posix.c:342:16
	cmpl	$32, %edx
Ltmp76:
	.loc	1 342 13 is_stmt 0      ## c_posix.c:342:13
	cmovneq	%rsi, %rax
Ltmp77:
	.loc	1 339 12 is_stmt 1      ## c_posix.c:339:12
	movb	(%rcx), %dl
	.loc	1 339 5 is_stmt 0       ## c_posix.c:339:5
	incq	%rcx
	testb	%dl, %dl
	jne	LBB0_23
Ltmp78:
LBB0_24:                                ## %RemoveSpaces.exit
                                        ##   in Loop: Header=BB0_11 Depth=1
	##DEBUG_VALUE: main:argc <- %EDI
	##DEBUG_VALUE: main:argv <- [%RBP+-2528]
	##DEBUG_VALUE: main:argc2 <- 0
	##DEBUG_VALUE: main:i <- 0
	##DEBUG_VALUE: main:isBackground <- 0
	##DEBUG_VALUE: main:built_in_command <- 0
	##DEBUG_VALUE: main:status <- 0
	##DEBUG_VALUE: main:max <- 80
	##DEBUG_VALUE: main:pos <- 0
	##DEBUG_VALUE: main:len <- 1
	##DEBUG_VALUE: main:breakloop <- 0
	##DEBUG_VALUE: main:pid_temp <- 0
	##DEBUG_VALUE: main:ret <- 1
	.loc	1 345 8 is_stmt 1       ## c_posix.c:345:8
	movb	$0, (%rax)
Ltmp79:
	.loc	1 234 34                ## c_posix.c:234:34
	movzbl	-2272(%rbp), %eax
	cmpl	$10, %eax
	je	LBB0_11
Ltmp80:
## BB#25:                               ##   in Loop: Header=BB0_11 Depth=1
	##DEBUG_VALUE: main:argc <- %EDI
	##DEBUG_VALUE: main:argv <- [%RBP+-2528]
	##DEBUG_VALUE: main:argc2 <- 0
	##DEBUG_VALUE: main:i <- 0
	##DEBUG_VALUE: main:isBackground <- 0
	##DEBUG_VALUE: main:built_in_command <- 0
	##DEBUG_VALUE: main:status <- 0
	##DEBUG_VALUE: main:max <- 80
	##DEBUG_VALUE: main:pos <- 0
	##DEBUG_VALUE: main:len <- 1
	##DEBUG_VALUE: main:breakloop <- 0
	##DEBUG_VALUE: main:pid_temp <- 0
	##DEBUG_VALUE: main:ret <- 1
	leaq	-1248(%rbp), %rbx
	.loc	1 476 18                ## c_posix.c:476:18
	movq	%rbx, %rdi
Ltmp81:
	callq	_strlen
Ltmp82:
	##DEBUG_VALUE: main:length <- %RAX
	.loc	1 477 13                ## c_posix.c:477:13
	movzbl	-1(%rax,%rbx), %ecx
	cmpl	$10, %ecx
	jne	LBB0_27
Ltmp83:
## BB#26:                               ##   in Loop: Header=BB0_11 Depth=1
	##DEBUG_VALUE: main:argc <- %EDI
	##DEBUG_VALUE: main:argv <- [%RBP+-2528]
	##DEBUG_VALUE: main:argc2 <- 0
	##DEBUG_VALUE: main:i <- 0
	##DEBUG_VALUE: main:isBackground <- 0
	##DEBUG_VALUE: main:built_in_command <- 0
	##DEBUG_VALUE: main:status <- 0
	##DEBUG_VALUE: main:max <- 80
	##DEBUG_VALUE: main:pos <- 0
	##DEBUG_VALUE: main:len <- 1
	##DEBUG_VALUE: main:breakloop <- 0
	##DEBUG_VALUE: main:pid_temp <- 0
	##DEBUG_VALUE: main:ret <- 1
	##DEBUG_VALUE: main:length <- %RAX
	.loc	1 479 30                ## c_posix.c:479:30
	movb	$0, -1249(%rbp,%rax)
Ltmp84:
LBB0_27:                                ##   in Loop: Header=BB0_11 Depth=1
	##DEBUG_VALUE: main:argc <- %EDI
	##DEBUG_VALUE: main:argv <- [%RBP+-2528]
	##DEBUG_VALUE: main:argc2 <- 0
	##DEBUG_VALUE: main:i <- 0
	##DEBUG_VALUE: main:isBackground <- 0
	##DEBUG_VALUE: main:built_in_command <- 0
	##DEBUG_VALUE: main:status <- 0
	##DEBUG_VALUE: main:max <- 80
	##DEBUG_VALUE: main:pos <- 0
	##DEBUG_VALUE: main:len <- 1
	##DEBUG_VALUE: main:breakloop <- 0
	##DEBUG_VALUE: main:pid_temp <- 0
	##DEBUG_VALUE: main:ret <- 1
	.loc	1 481 13                ## c_posix.c:481:13
	movq	%rbx, %rdi
Ltmp85:
	leaq	L_.str.12(%rip), %rsi
	callq	_strcmp
	.loc	1 481 34 is_stmt 0      ## c_posix.c:481:34
	testl	%eax, %eax
	je	LBB0_117
Ltmp86:
## BB#28:                               ##   in Loop: Header=BB0_11 Depth=1
	##DEBUG_VALUE: main:argc <- %EDI
	##DEBUG_VALUE: main:argv <- [%RBP+-2528]
	##DEBUG_VALUE: main:argc2 <- 0
	##DEBUG_VALUE: main:i <- 0
	##DEBUG_VALUE: main:isBackground <- 0
	##DEBUG_VALUE: main:built_in_command <- 0
	##DEBUG_VALUE: main:status <- 0
	##DEBUG_VALUE: main:max <- 80
	##DEBUG_VALUE: main:pos <- 0
	##DEBUG_VALUE: main:len <- 1
	##DEBUG_VALUE: main:breakloop <- 0
	##DEBUG_VALUE: main:pid_temp <- 0
	##DEBUG_VALUE: main:ret <- 1
	##DEBUG_VALUE: StartsWith:b <- undef
	.loc	1 234 9 is_stmt 1       ## c_posix.c:234:9
	movl	$2, %edx
	movq	%rbx, %rdi
Ltmp87:
	leaq	L_.str.13(%rip), %rsi
	callq	_strncmp
	xorl	%r14d, %r14d
Ltmp88:
	.loc	1 486 13                ## c_posix.c:486:13
	testl	%eax, %eax
	.loc	1 501 28                ## c_posix.c:501:28
Ltmp89:
	leaq	L_.str(%rip), %r13
	jne	LBB0_35
Ltmp90:
## BB#29:                               ##   in Loop: Header=BB0_11 Depth=1
	##DEBUG_VALUE: main:argc <- %EDI
	##DEBUG_VALUE: main:argv <- [%RBP+-2528]
	##DEBUG_VALUE: main:argc2 <- 0
	##DEBUG_VALUE: main:i <- 0
	##DEBUG_VALUE: main:isBackground <- 0
	##DEBUG_VALUE: main:built_in_command <- 1
	##DEBUG_VALUE: main:status <- 0
	##DEBUG_VALUE: main:max <- 80
	##DEBUG_VALUE: main:pos <- 0
	##DEBUG_VALUE: main:len <- 1
	##DEBUG_VALUE: main:breakloop <- 0
	##DEBUG_VALUE: main:pid_temp <- 0
	##DEBUG_VALUE: main:ret <- 1
	.loc	1 489 17                ## c_posix.c:489:17
	movl	$32, %esi
	movq	%rbx, %rdi
Ltmp91:
	callq	_strchr
Ltmp92:
	.loc	1 489 17 is_stmt 0      ## c_posix.c:489:17
	testq	%rax, %rax
	je	LBB0_30
## BB#32:                               ##   in Loop: Header=BB0_11 Depth=1
Ltmp93:
	##DEBUG_VALUE: main:argc <- %EDI
	##DEBUG_VALUE: main:argv <- [%RBP+-2528]
	##DEBUG_VALUE: main:argc2 <- 0
	##DEBUG_VALUE: main:i <- 0
	##DEBUG_VALUE: main:isBackground <- 0
	##DEBUG_VALUE: main:built_in_command <- 1
	##DEBUG_VALUE: main:status <- 0
	##DEBUG_VALUE: main:max <- 80
	##DEBUG_VALUE: main:pos <- 0
	##DEBUG_VALUE: main:len <- 1
	##DEBUG_VALUE: main:breakloop <- 0
	##DEBUG_VALUE: main:pid_temp <- 0
	##DEBUG_VALUE: main:ret <- 1
	.loc	1 501 28 is_stmt 1      ## c_posix.c:501:28
	movq	%rbx, %rdi
Ltmp94:
	movq	%r13, %rsi
	callq	_strtok
	xorl	%edi, %edi
	.loc	1 502 28                ## c_posix.c:502:28
	movq	%r13, %rsi
	callq	_strtok
Ltmp95:
	##DEBUG_VALUE: main:tokenstr <- %RAX
	.loc	1 504 21                ## c_posix.c:504:21
	movq	%rax, %rdi
	callq	_chdir
Ltmp96:
	movl	$1, %r14d
Ltmp97:
	.loc	1 504 21 is_stmt 0      ## c_posix.c:504:21
	cmpl	$-1, %eax
	jne	LBB0_35
## BB#33:                               ##   in Loop: Header=BB0_11 Depth=1
Ltmp98:
	##DEBUG_VALUE: main:argc <- %EDI
	##DEBUG_VALUE: main:argv <- [%RBP+-2528]
	##DEBUG_VALUE: main:argc2 <- 0
	##DEBUG_VALUE: main:i <- 0
	##DEBUG_VALUE: main:isBackground <- 0
	##DEBUG_VALUE: main:built_in_command <- 1
	##DEBUG_VALUE: main:status <- 0
	##DEBUG_VALUE: main:max <- 80
	##DEBUG_VALUE: main:pos <- 0
	##DEBUG_VALUE: main:len <- 1
	##DEBUG_VALUE: main:breakloop <- 0
	##DEBUG_VALUE: main:pid_temp <- 0
	##DEBUG_VALUE: main:ret <- 1
	.loc	1 506 21 is_stmt 1      ## c_posix.c:506:21
	leaq	L_.str.15(%rip), %rdi
Ltmp99:
	jmp	LBB0_34
Ltmp100:
LBB0_30:                                ##   in Loop: Header=BB0_11 Depth=1
	##DEBUG_VALUE: main:argc <- %EDI
	##DEBUG_VALUE: main:argv <- [%RBP+-2528]
	##DEBUG_VALUE: main:argc2 <- 0
	##DEBUG_VALUE: main:i <- 0
	##DEBUG_VALUE: main:isBackground <- 0
	##DEBUG_VALUE: main:built_in_command <- 1
	##DEBUG_VALUE: main:status <- 0
	##DEBUG_VALUE: main:max <- 80
	##DEBUG_VALUE: main:pos <- 0
	##DEBUG_VALUE: main:len <- 1
	##DEBUG_VALUE: main:breakloop <- 0
	##DEBUG_VALUE: main:pid_temp <- 0
	##DEBUG_VALUE: main:ret <- 1
	.loc	1 491 31                ## c_posix.c:491:31
	callq	_getuid
	.loc	1 491 22 is_stmt 0      ## c_posix.c:491:22
	movl	%eax, %edi
Ltmp101:
	callq	_getpwuid
Ltmp102:
	##DEBUG_VALUE: main:pw <- %RAX
	.loc	1 492 31 is_stmt 1      ## c_posix.c:492:31
	movq	48(%rax), %rdi
Ltmp103:
	##DEBUG_VALUE: main:homedir <- %RDI
	.loc	1 494 21                ## c_posix.c:494:21
	callq	_chdir
Ltmp104:
	movl	$1, %r14d
Ltmp105:
	.loc	1 494 21 is_stmt 0      ## c_posix.c:494:21
	cmpl	$-1, %eax
	je	LBB0_31
Ltmp106:
LBB0_35:                                ##   in Loop: Header=BB0_11 Depth=1
	##DEBUG_VALUE: main:argc <- %EDI
	##DEBUG_VALUE: main:argv <- [%RBP+-2528]
	##DEBUG_VALUE: main:argc2 <- 0
	##DEBUG_VALUE: main:i <- 0
	##DEBUG_VALUE: main:isBackground <- 0
	##DEBUG_VALUE: main:built_in_command <- 0
	##DEBUG_VALUE: main:status <- 0
	##DEBUG_VALUE: main:max <- 80
	##DEBUG_VALUE: main:pos <- 0
	##DEBUG_VALUE: main:len <- 1
	##DEBUG_VALUE: main:breakloop <- 0
	##DEBUG_VALUE: main:pid_temp <- 0
	##DEBUG_VALUE: main:ret <- 1
	##DEBUG_VALUE: StartsWith:b <- undef
	.loc	1 234 9 is_stmt 1       ## c_posix.c:234:9
	movl	$8, %edx
	movq	%rbx, %rdi
Ltmp107:
	leaq	L_.str.16(%rip), %rsi
	callq	_strncmp
Ltmp108:
	.loc	1 516 13                ## c_posix.c:516:13
	testl	%eax, %eax
	je	LBB0_36
## BB#64:                               ##   in Loop: Header=BB0_11 Depth=1
Ltmp109:
	##DEBUG_VALUE: main:argc <- %EDI
	##DEBUG_VALUE: main:argv <- [%RBP+-2528]
	##DEBUG_VALUE: main:argc2 <- 0
	##DEBUG_VALUE: main:i <- 0
	##DEBUG_VALUE: main:isBackground <- 0
	##DEBUG_VALUE: main:built_in_command <- 0
	##DEBUG_VALUE: main:status <- 0
	##DEBUG_VALUE: main:max <- 80
	##DEBUG_VALUE: main:pos <- 0
	##DEBUG_VALUE: main:len <- 1
	##DEBUG_VALUE: main:breakloop <- 0
	##DEBUG_VALUE: main:pid_temp <- 0
	##DEBUG_VALUE: main:ret <- 1
	xorl	%r12d, %r12d
	.loc	1 568 13                ## c_posix.c:568:13
	testl	%r14d, %r14d
	movl	$4, %eax
	movl	$1, %edx
	jne	LBB0_115
Ltmp110:
	.align	4, 0x90
LBB0_65:                                ## %.preheader
                                        ##   Parent Loop BB0_11 Depth=1
                                        ## =>  This Inner Loop Header: Depth=2
	##DEBUG_VALUE: main:argc <- %EDI
	##DEBUG_VALUE: main:argv <- [%RBP+-2528]
	##DEBUG_VALUE: main:argc2 <- 0
	##DEBUG_VALUE: main:i <- 0
	##DEBUG_VALUE: main:isBackground <- 0
	##DEBUG_VALUE: main:built_in_command <- 0
	##DEBUG_VALUE: main:status <- 0
	##DEBUG_VALUE: main:max <- 80
	##DEBUG_VALUE: main:pos <- 0
	##DEBUG_VALUE: main:len <- 1
	##DEBUG_VALUE: main:breakloop <- 0
	##DEBUG_VALUE: main:pid_temp <- 0
	##DEBUG_VALUE: main:ret <- 1
	.loc	1 581 25                ## c_posix.c:581:25
	movzbl	-1252(%rbp,%rax), %ecx
	cmpl	$38, %ecx
Ltmp111:
	##DEBUG_VALUE: main:isBackground <- 1
	movzbl	-1251(%rbp,%rax), %ecx
Ltmp112:
	.loc	1 581 21 is_stmt 0      ## c_posix.c:581:21
	cmovel	%edx, %r12d
	.loc	1 581 25                ## c_posix.c:581:25
Ltmp113:
	cmpl	$38, %ecx
	movzbl	-1250(%rbp,%rax), %ecx
Ltmp114:
	.loc	1 581 21                ## c_posix.c:581:21
	cmovel	%edx, %r12d
	.loc	1 581 25                ## c_posix.c:581:25
Ltmp115:
	cmpl	$38, %ecx
	movzbl	-1249(%rbp,%rax), %ecx
Ltmp116:
	.loc	1 581 21                ## c_posix.c:581:21
	cmovel	%edx, %r12d
	.loc	1 581 25                ## c_posix.c:581:25
Ltmp117:
	cmpl	$38, %ecx
	movzbl	-1248(%rbp,%rax), %ecx
Ltmp118:
	.loc	1 581 21                ## c_posix.c:581:21
	cmovel	%edx, %r12d
	.loc	1 581 25                ## c_posix.c:581:25
Ltmp119:
	cmpl	$38, %ecx
Ltmp120:
	.loc	1 581 21                ## c_posix.c:581:21
	cmovel	%edx, %r12d
Ltmp121:
	.loc	1 579 13 is_stmt 1      ## c_posix.c:579:13
	addq	$5, %rax
	cmpq	$84, %rax
	jne	LBB0_65
Ltmp122:
## BB#66:                               ##   in Loop: Header=BB0_11 Depth=1
	##DEBUG_VALUE: main:argc <- %EDI
	##DEBUG_VALUE: main:argv <- [%RBP+-2528]
	##DEBUG_VALUE: main:argc2 <- 0
	##DEBUG_VALUE: main:i <- 0
	##DEBUG_VALUE: main:isBackground <- 1
	##DEBUG_VALUE: main:built_in_command <- 0
	##DEBUG_VALUE: main:status <- 0
	##DEBUG_VALUE: main:max <- 80
	##DEBUG_VALUE: main:pos <- 0
	##DEBUG_VALUE: main:len <- 1
	##DEBUG_VALUE: main:breakloop <- 0
	##DEBUG_VALUE: main:pid_temp <- 0
	##DEBUG_VALUE: main:ret <- 1
	.loc	1 587 17                ## c_posix.c:587:17
	cmpl	$1, %r12d
	jne	LBB0_70
Ltmp123:
## BB#67:                               ##   in Loop: Header=BB0_11 Depth=1
	##DEBUG_VALUE: main:argc <- %EDI
	##DEBUG_VALUE: main:argv <- [%RBP+-2528]
	##DEBUG_VALUE: main:argc2 <- 0
	##DEBUG_VALUE: main:i <- 0
	##DEBUG_VALUE: main:isBackground <- 1
	##DEBUG_VALUE: main:built_in_command <- 0
	##DEBUG_VALUE: main:status <- 0
	##DEBUG_VALUE: main:max <- 80
	##DEBUG_VALUE: main:pos <- 0
	##DEBUG_VALUE: main:len <- 1
	##DEBUG_VALUE: main:breakloop <- 0
	##DEBUG_VALUE: main:pid_temp <- 0
	##DEBUG_VALUE: main:ret <- 1
	leaq	-2280(%rbp), %rdi
Ltmp124:
	.loc	1 590 21                ## c_posix.c:590:21
	callq	_pipe
Ltmp125:
	.loc	1 590 21 is_stmt 0      ## c_posix.c:590:21
	cmpl	$-1, %eax
	je	LBB0_68
LBB0_69:                                ##   in Loop: Header=BB0_11 Depth=1
Ltmp126:
	##DEBUG_VALUE: main:argc <- %EDI
	##DEBUG_VALUE: main:argv <- [%RBP+-2528]
	##DEBUG_VALUE: main:argc2 <- 0
	##DEBUG_VALUE: main:i <- 0
	##DEBUG_VALUE: main:isBackground <- 1
	##DEBUG_VALUE: main:built_in_command <- 0
	##DEBUG_VALUE: main:status <- 0
	##DEBUG_VALUE: main:max <- 80
	##DEBUG_VALUE: main:pos <- 0
	##DEBUG_VALUE: main:len <- 1
	##DEBUG_VALUE: main:breakloop <- 0
	##DEBUG_VALUE: main:pid_temp <- 0
	##DEBUG_VALUE: main:ret <- 1
	.loc	1 595 28 is_stmt 1      ## c_posix.c:595:28
	callq	_fork
	movl	%eax, -2516(%rbp)       ## 4-byte Spill
Ltmp127:
	##DEBUG_VALUE: main:pid_temp <- [%RBP+-2516]
	jmp	LBB0_74
Ltmp128:
LBB0_70:                                ##   in Loop: Header=BB0_11 Depth=1
	##DEBUG_VALUE: main:argc <- %EDI
	##DEBUG_VALUE: main:argv <- [%RBP+-2528]
	##DEBUG_VALUE: main:argc2 <- 0
	##DEBUG_VALUE: main:i <- 0
	##DEBUG_VALUE: main:isBackground <- 1
	##DEBUG_VALUE: main:built_in_command <- 0
	##DEBUG_VALUE: main:status <- 0
	##DEBUG_VALUE: main:max <- 80
	##DEBUG_VALUE: main:pos <- 0
	##DEBUG_VALUE: main:len <- 1
	##DEBUG_VALUE: main:breakloop <- 0
	##DEBUG_VALUE: main:pid_temp <- 0
	##DEBUG_VALUE: main:ret <- 1
	.loc	1 597 22                ## c_posix.c:597:22
	testl	%r12d, %r12d
	jne	LBB0_74
Ltmp129:
## BB#71:                               ##   in Loop: Header=BB0_11 Depth=1
	##DEBUG_VALUE: main:argc <- %EDI
	##DEBUG_VALUE: main:argv <- [%RBP+-2528]
	##DEBUG_VALUE: main:argc2 <- 0
	##DEBUG_VALUE: main:i <- 0
	##DEBUG_VALUE: main:isBackground <- 1
	##DEBUG_VALUE: main:built_in_command <- 0
	##DEBUG_VALUE: main:status <- 0
	##DEBUG_VALUE: main:max <- 80
	##DEBUG_VALUE: main:pos <- 0
	##DEBUG_VALUE: main:len <- 1
	##DEBUG_VALUE: main:breakloop <- 0
	##DEBUG_VALUE: main:pid_temp <- 0
	##DEBUG_VALUE: main:ret <- 1
	##DEBUG_VALUE: main:time_start <- undef
	xorl	%esi, %esi
	leaq	-2424(%rbp), %rdi
Ltmp130:
	.loc	1 599 17                ## c_posix.c:599:17
	callq	_gettimeofday
	.loc	1 601 21                ## c_posix.c:601:21
	cmpl	$1, _isSignal(%rip)
	jne	LBB0_73
## BB#72:                               ##   in Loop: Header=BB0_11 Depth=1
Ltmp131:
	##DEBUG_VALUE: main:argc <- %EDI
	##DEBUG_VALUE: main:argv <- [%RBP+-2528]
	##DEBUG_VALUE: main:argc2 <- 0
	##DEBUG_VALUE: main:i <- 0
	##DEBUG_VALUE: main:isBackground <- 1
	##DEBUG_VALUE: main:built_in_command <- 0
	##DEBUG_VALUE: main:status <- 0
	##DEBUG_VALUE: main:max <- 80
	##DEBUG_VALUE: main:pos <- 0
	##DEBUG_VALUE: main:len <- 1
	##DEBUG_VALUE: main:breakloop <- 0
	##DEBUG_VALUE: main:pid_temp <- 0
	##DEBUG_VALUE: main:ret <- 1
	##DEBUG_VALUE: main:time_start <- undef
	##DEBUG_VALUE: main:my_sig <- 524288
	##DEBUG_VALUE: __sigbits:__signo <- 20
	.loc	1 604 21                ## c_posix.c:604:21
	movl	$524288, -2444(%rbp)    ## imm = 0x80000
Ltmp132:
	##DEBUG_VALUE: main:my_sig <- undef
	movl	$1, %edi
Ltmp133:
	xorl	%edx, %edx
	leaq	-2444(%rbp), %rsi
	.loc	1 606 21                ## c_posix.c:606:21
	callq	_sigprocmask
Ltmp134:
LBB0_73:                                ##   in Loop: Header=BB0_11 Depth=1
	##DEBUG_VALUE: main:argc <- %EDI
	##DEBUG_VALUE: main:argv <- [%RBP+-2528]
	##DEBUG_VALUE: main:argc2 <- 0
	##DEBUG_VALUE: main:i <- 0
	##DEBUG_VALUE: main:isBackground <- 1
	##DEBUG_VALUE: main:built_in_command <- 0
	##DEBUG_VALUE: main:status <- 0
	##DEBUG_VALUE: main:max <- 80
	##DEBUG_VALUE: main:pos <- 0
	##DEBUG_VALUE: main:len <- 1
	##DEBUG_VALUE: main:breakloop <- 0
	##DEBUG_VALUE: main:pid_temp <- 0
	##DEBUG_VALUE: main:ret <- 1
	##DEBUG_VALUE: main:time_start <- undef
	.loc	1 610 28                ## c_posix.c:610:28
	movl	-2516(%rbp), %eax       ## 4-byte Reload
	movl	%eax, _foreground(%rip)
Ltmp135:
LBB0_74:                                ##   in Loop: Header=BB0_11 Depth=1
	##DEBUG_VALUE: main:argc <- %EDI
	##DEBUG_VALUE: main:argv <- [%RBP+-2528]
	##DEBUG_VALUE: main:argc2 <- 0
	##DEBUG_VALUE: main:i <- 0
	##DEBUG_VALUE: main:isBackground <- 1
	##DEBUG_VALUE: main:built_in_command <- 0
	##DEBUG_VALUE: main:status <- 0
	##DEBUG_VALUE: main:max <- 80
	##DEBUG_VALUE: main:pos <- 0
	##DEBUG_VALUE: main:len <- 1
	##DEBUG_VALUE: main:breakloop <- 0
	##DEBUG_VALUE: main:pid_temp <- 0
	##DEBUG_VALUE: main:ret <- 1
	.loc	1 612 25                ## c_posix.c:612:25
	movq	-2528(%rbp), %rax       ## 8-byte Reload
	movq	(%rax), %rax
	.loc	1 181 10                ## c_posix.c:181:10
Ltmp136:
	movq	%rax, _arg0(%rip)
Ltmp137:
	##DEBUG_VALUE: main:i <- 1
	.loc	1 615 17                ## c_posix.c:615:17
	movq	%rbx, %rdi
Ltmp138:
	movq	%r13, %rsi
	callq	_strtok
Ltmp139:
	##DEBUG_VALUE: main:p <- %RAX
	.loc	1 617 22                ## c_posix.c:617:22
	movq	$0, -224(%rbp)
	movl	$1, %r14d
	.loc	1 618 22                ## c_posix.c:618:22
	testq	%rax, %rax
	movl	$1, %ebx
	je	LBB0_77
Ltmp140:
	.align	4, 0x90
LBB0_75:                                ## %.lr.ph24
                                        ##   Parent Loop BB0_11 Depth=1
                                        ## =>  This Inner Loop Header: Depth=2
	##DEBUG_VALUE: main:argc <- %EDI
	##DEBUG_VALUE: main:argv <- [%RBP+-2528]
	##DEBUG_VALUE: main:argc2 <- 0
	##DEBUG_VALUE: main:i <- 1
	##DEBUG_VALUE: main:isBackground <- 1
	##DEBUG_VALUE: main:built_in_command <- 0
	##DEBUG_VALUE: main:status <- 0
	##DEBUG_VALUE: main:max <- 80
	##DEBUG_VALUE: main:pos <- 0
	##DEBUG_VALUE: main:len <- 1
	##DEBUG_VALUE: main:breakloop <- 0
	##DEBUG_VALUE: main:pid_temp <- 0
	##DEBUG_VALUE: main:ret <- 1
	.loc	1 620 28                ## c_posix.c:620:28
	movq	%rax, -224(%rbp,%rbx,8)
Ltmp141:
	.loc	1 618 13                ## c_posix.c:618:13
	incq	%rbx
	xorl	%edi, %edi
Ltmp142:
	.loc	1 621 21                ## c_posix.c:621:21
	movq	%r13, %rsi
	callq	_strtok
Ltmp143:
	##DEBUG_VALUE: main:p <- %RAX
	.loc	1 618 13                ## c_posix.c:618:13
	testq	%rax, %rax
	jne	LBB0_75
Ltmp144:
## BB#76:                               ## %._crit_edge.loopexit
                                        ##   in Loop: Header=BB0_11 Depth=1
	##DEBUG_VALUE: main:argc <- %EDI
	##DEBUG_VALUE: main:argv <- [%RBP+-2528]
	##DEBUG_VALUE: main:argc2 <- 0
	##DEBUG_VALUE: main:i <- 1
	##DEBUG_VALUE: main:isBackground <- 1
	##DEBUG_VALUE: main:built_in_command <- 0
	##DEBUG_VALUE: main:status <- 0
	##DEBUG_VALUE: main:max <- 80
	##DEBUG_VALUE: main:pos <- 0
	##DEBUG_VALUE: main:len <- 1
	##DEBUG_VALUE: main:breakloop <- 0
	##DEBUG_VALUE: main:pid_temp <- 0
	##DEBUG_VALUE: main:ret <- 1
	movl	%ebx, %r14d
Ltmp145:
LBB0_77:                                ## %._crit_edge
                                        ##   in Loop: Header=BB0_11 Depth=1
	##DEBUG_VALUE: main:argc <- %EDI
	##DEBUG_VALUE: main:argv <- [%RBP+-2528]
	##DEBUG_VALUE: main:argc2 <- 0
	##DEBUG_VALUE: main:i <- 1
	##DEBUG_VALUE: main:isBackground <- 1
	##DEBUG_VALUE: main:built_in_command <- 0
	##DEBUG_VALUE: main:status <- 0
	##DEBUG_VALUE: main:max <- 80
	##DEBUG_VALUE: main:pos <- 0
	##DEBUG_VALUE: main:len <- 1
	##DEBUG_VALUE: main:breakloop <- 0
	##DEBUG_VALUE: main:pid_temp <- 0
	##DEBUG_VALUE: main:ret <- 1
	.loc	1 623 13                ## c_posix.c:623:13
	movslq	%r14d, %rbx
	.loc	1 623 22 is_stmt 0      ## c_posix.c:623:22
	movq	%rbx, -2512(%rbp)       ## 8-byte Spill
	movq	$0, -224(%rbp,%rbx,8)
	xorl	%eax, %eax
	.loc	1 115 5 is_stmt 1       ## c_posix.c:115:5
Ltmp146:
	leaq	L_.str.43(%rip), %rdi
Ltmp147:
	leaq	L_.str.37(%rip), %rsi
	movl	%ebx, %edx
	callq	_printf
Ltmp148:
	##DEBUG_VALUE: i <- 0
	.loc	1 116 5                 ## c_posix.c:116:5
	testl	%ebx, %ebx
	leaq	-224(%rbp), %rbx
	.loc	1 117 9                 ## c_posix.c:117:9
Ltmp149:
	leaq	L_.str.44(%rip), %r13
	jle	LBB0_79
	.align	4, 0x90
LBB0_78:                                ## %.lr.ph.i.i
                                        ##   Parent Loop BB0_11 Depth=1
                                        ## =>  This Inner Loop Header: Depth=2
Ltmp150:
	##DEBUG_VALUE: main:argc <- %EDI
	##DEBUG_VALUE: main:argv <- [%RBP+-2528]
	##DEBUG_VALUE: main:argc2 <- 0
	##DEBUG_VALUE: main:i <- 1
	##DEBUG_VALUE: main:isBackground <- 1
	##DEBUG_VALUE: main:built_in_command <- 0
	##DEBUG_VALUE: main:status <- 0
	##DEBUG_VALUE: main:max <- 80
	##DEBUG_VALUE: main:pos <- 0
	##DEBUG_VALUE: main:len <- 1
	##DEBUG_VALUE: main:breakloop <- 0
	##DEBUG_VALUE: main:pid_temp <- 0
	##DEBUG_VALUE: main:ret <- 1
	##DEBUG_VALUE: i <- 0
	.loc	1 117 26 is_stmt 0      ## c_posix.c:117:26
	movq	(%rbx), %rsi
	.loc	1 117 34                ## c_posix.c:117:34
	testq	%rsi, %rsi
	.loc	1 117 25                ## c_posix.c:117:25
	leaq	L_.str.45(%rip), %rax
	cmoveq	%rax, %rsi
	xorl	%eax, %eax
	.loc	1 117 9                 ## c_posix.c:117:9
	movq	%r13, %rdi
Ltmp151:
	callq	_printf
Ltmp152:
	.loc	1 116 5 is_stmt 1       ## c_posix.c:116:5
	addq	$8, %rbx
	decl	%r14d
	jne	LBB0_78
Ltmp153:
LBB0_79:                                ## %dump_argv.exit.i
                                        ##   in Loop: Header=BB0_11 Depth=1
	##DEBUG_VALUE: main:argc <- %EDI
	##DEBUG_VALUE: main:argv <- [%RBP+-2528]
	##DEBUG_VALUE: main:argc2 <- 0
	##DEBUG_VALUE: main:i <- 1
	##DEBUG_VALUE: main:isBackground <- 1
	##DEBUG_VALUE: main:built_in_command <- 0
	##DEBUG_VALUE: main:status <- 0
	##DEBUG_VALUE: main:max <- 80
	##DEBUG_VALUE: main:pos <- 0
	##DEBUG_VALUE: main:len <- 1
	##DEBUG_VALUE: main:breakloop <- 0
	##DEBUG_VALUE: main:pid_temp <- 0
	##DEBUG_VALUE: main:ret <- 1
	.loc	1 118 5                 ## c_posix.c:118:5
	movl	$10, %edi
Ltmp154:
	callq	_putchar
	.loc	1 119 12                ## c_posix.c:119:12
	movq	___stdoutp@GOTPCREL(%rip), %rax
	movq	(%rax), %rdi
	.loc	1 119 5 is_stmt 0       ## c_posix.c:119:5
	callq	_fflush
	movq	-2512(%rbp), %rbx       ## 8-byte Reload
Ltmp155:
	.loc	1 144 48 is_stmt 1      ## c_posix.c:144:48
	movl	%ebx, %eax
	shrl	$31, %eax
	addl	%ebx, %eax
	sarl	%eax
	.loc	1 144 42 is_stmt 0      ## c_posix.c:144:42
	movslq	%eax, %rdi
	.loc	1 144 40                ## c_posix.c:144:40
	shlq	$3, %rdi
	.loc	1 144 20                ## c_posix.c:144:20
	callq	_malloc
	movq	%rax, %r14
	.loc	1 145 39 is_stmt 1      ## c_posix.c:145:39
	movq	%r14, -2496(%rbp)       ## 8-byte Spill
	leaq	8(,%rbx,8), %rdi
	.loc	1 145 19 is_stmt 0      ## c_posix.c:145:19
	callq	_malloc
Ltmp156:
	##DEBUG_VALUE: exec_arguments:argn <- 0
	##DEBUG_VALUE: exec_arguments:cmdn <- 1
	.loc	1 149 18 is_stmt 1      ## c_posix.c:149:18
	movq	%rax, -2504(%rbp)       ## 8-byte Spill
	movq	%rax, (%r14)
Ltmp157:
	##DEBUG_VALUE: i <- 1
	movl	$1, -2488(%rbp)         ## 4-byte Folded Spill
	xorl	%r14d, %r14d
	.loc	1 151 23                ## c_posix.c:151:23
Ltmp158:
	cmpl	$1, %ebx
	movl	$1, %ebx
	jle	LBB0_80
	.align	4, 0x90
LBB0_82:                                ## %.lr.ph.i.9
                                        ##   Parent Loop BB0_11 Depth=1
                                        ## =>  This Inner Loop Header: Depth=2
Ltmp159:
	##DEBUG_VALUE: main:argc <- %EDI
	##DEBUG_VALUE: main:argv <- [%RBP+-2528]
	##DEBUG_VALUE: main:argc2 <- 0
	##DEBUG_VALUE: main:i <- 1
	##DEBUG_VALUE: main:isBackground <- 1
	##DEBUG_VALUE: main:built_in_command <- 0
	##DEBUG_VALUE: main:status <- 0
	##DEBUG_VALUE: main:max <- 80
	##DEBUG_VALUE: main:pos <- 0
	##DEBUG_VALUE: main:len <- 1
	##DEBUG_VALUE: main:breakloop <- 0
	##DEBUG_VALUE: main:pid_temp <- 0
	##DEBUG_VALUE: main:ret <- 1
	##DEBUG_VALUE: exec_arguments:cmdn <- 1
	##DEBUG_VALUE: exec_arguments:argn <- 0
	##DEBUG_VALUE: i <- 1
	.loc	1 153 21                ## c_posix.c:153:21
	movq	-224(%rbp,%rbx,8), %r13
Ltmp160:
	##DEBUG_VALUE: arg <- %R13
	.loc	1 155 13                ## c_posix.c:155:13
	movq	%r13, %rdi
Ltmp161:
	leaq	L_.str.21(%rip), %rsi
	callq	_strcmp
Ltmp162:
	.loc	1 155 13 is_stmt 0      ## c_posix.c:155:13
	testl	%eax, %eax
	je	LBB0_83
Ltmp163:
## BB#87:                               ##   in Loop: Header=BB0_82 Depth=2
	##DEBUG_VALUE: main:argc <- %EDI
	##DEBUG_VALUE: main:argv <- [%RBP+-2528]
	##DEBUG_VALUE: main:argc2 <- 0
	##DEBUG_VALUE: main:i <- 1
	##DEBUG_VALUE: main:isBackground <- 1
	##DEBUG_VALUE: main:built_in_command <- 0
	##DEBUG_VALUE: main:status <- 0
	##DEBUG_VALUE: main:max <- 80
	##DEBUG_VALUE: main:pos <- 0
	##DEBUG_VALUE: main:len <- 1
	##DEBUG_VALUE: main:breakloop <- 0
	##DEBUG_VALUE: main:pid_temp <- 0
	##DEBUG_VALUE: main:ret <- 1
	##DEBUG_VALUE: exec_arguments:cmdn <- 1
	##DEBUG_VALUE: exec_arguments:argn <- %R14D
	##DEBUG_VALUE: i <- 1
	##DEBUG_VALUE: arg <- %R13
	.loc	1 163 9 is_stmt 1       ## c_posix.c:163:9
	movslq	%r14d, %rcx
	.loc	1 163 18 is_stmt 0      ## c_posix.c:163:18
	incl	%r14d
Ltmp164:
	movq	-2504(%rbp), %rax       ## 8-byte Reload
	.loc	1 163 22                ## c_posix.c:163:22
	movq	%r13, (%rax,%rcx,8)
	.loc	1 164 13 is_stmt 1      ## c_posix.c:164:13
	testq	%r13, %r13
	jne	LBB0_89
	jmp	LBB0_88
Ltmp165:
	.align	4, 0x90
LBB0_83:                                ##   in Loop: Header=BB0_82 Depth=2
	##DEBUG_VALUE: main:argc <- %EDI
	##DEBUG_VALUE: main:argv <- [%RBP+-2528]
	##DEBUG_VALUE: main:argc2 <- 0
	##DEBUG_VALUE: main:i <- 1
	##DEBUG_VALUE: main:isBackground <- 1
	##DEBUG_VALUE: main:built_in_command <- 0
	##DEBUG_VALUE: main:status <- 0
	##DEBUG_VALUE: main:max <- 80
	##DEBUG_VALUE: main:pos <- 0
	##DEBUG_VALUE: main:len <- 1
	##DEBUG_VALUE: main:breakloop <- 0
	##DEBUG_VALUE: main:pid_temp <- 0
	##DEBUG_VALUE: main:ret <- 1
	##DEBUG_VALUE: exec_arguments:cmdn <- 1
	##DEBUG_VALUE: exec_arguments:argn <- 0
	##DEBUG_VALUE: i <- 1
	.loc	1 157 17                ## c_posix.c:157:17
	cmpq	$1, %rbx
	movq	-2504(%rbp), %rax       ## 8-byte Reload
	je	LBB0_122
Ltmp166:
## BB#84:                               ##   in Loop: Header=BB0_82 Depth=2
	##DEBUG_VALUE: main:argc <- %EDI
	##DEBUG_VALUE: main:argv <- [%RBP+-2528]
	##DEBUG_VALUE: main:argc2 <- 0
	##DEBUG_VALUE: main:i <- 1
	##DEBUG_VALUE: main:isBackground <- 1
	##DEBUG_VALUE: main:built_in_command <- 0
	##DEBUG_VALUE: main:status <- 0
	##DEBUG_VALUE: main:max <- 80
	##DEBUG_VALUE: main:pos <- 0
	##DEBUG_VALUE: main:len <- 1
	##DEBUG_VALUE: main:breakloop <- 0
	##DEBUG_VALUE: main:pid_temp <- 0
	##DEBUG_VALUE: main:ret <- 1
	##DEBUG_VALUE: exec_arguments:cmdn <- 1
	##DEBUG_VALUE: exec_arguments:argn <- 0
	##DEBUG_VALUE: i <- 1
	.loc	1 159 17                ## c_posix.c:159:17
	movslq	%r14d, %rcx
	.loc	1 159 32 is_stmt 0      ## c_posix.c:159:32
	cmpq	$0, -8(%rax,%rcx,8)
Ltmp167:
	.loc	1 159 17                ## c_posix.c:159:17
	je	LBB0_86
Ltmp168:
## BB#85:                               ## %.thread.i.10
                                        ##   in Loop: Header=BB0_82 Depth=2
	##DEBUG_VALUE: main:argc <- %EDI
	##DEBUG_VALUE: main:argv <- [%RBP+-2528]
	##DEBUG_VALUE: main:argc2 <- 0
	##DEBUG_VALUE: main:i <- 1
	##DEBUG_VALUE: main:isBackground <- 1
	##DEBUG_VALUE: main:built_in_command <- 0
	##DEBUG_VALUE: main:status <- 0
	##DEBUG_VALUE: main:max <- 80
	##DEBUG_VALUE: main:pos <- 0
	##DEBUG_VALUE: main:len <- 1
	##DEBUG_VALUE: main:breakloop <- 0
	##DEBUG_VALUE: main:pid_temp <- 0
	##DEBUG_VALUE: main:ret <- 1
	##DEBUG_VALUE: exec_arguments:cmdn <- 1
	##DEBUG_VALUE: exec_arguments:argn <- 0
	##DEBUG_VALUE: i <- 1
	.loc	1 163 18 is_stmt 1      ## c_posix.c:163:18
	incl	%r14d
	.loc	1 163 22 is_stmt 0      ## c_posix.c:163:22
	movq	$0, (%rax,%rcx,8)
Ltmp169:
LBB0_88:                                ##   in Loop: Header=BB0_82 Depth=2
	##DEBUG_VALUE: main:argc <- %EDI
	##DEBUG_VALUE: main:argv <- [%RBP+-2528]
	##DEBUG_VALUE: main:argc2 <- 0
	##DEBUG_VALUE: main:i <- 1
	##DEBUG_VALUE: main:isBackground <- 1
	##DEBUG_VALUE: main:built_in_command <- 0
	##DEBUG_VALUE: main:status <- 0
	##DEBUG_VALUE: main:max <- 80
	##DEBUG_VALUE: main:pos <- 0
	##DEBUG_VALUE: main:len <- 1
	##DEBUG_VALUE: main:breakloop <- 0
	##DEBUG_VALUE: main:pid_temp <- 0
	##DEBUG_VALUE: main:ret <- 1
	##DEBUG_VALUE: exec_arguments:cmdn <- 1
	##DEBUG_VALUE: exec_arguments:argn <- 0
	##DEBUG_VALUE: i <- 1
	.loc	1 165 29 is_stmt 1      ## c_posix.c:165:29
	movslq	%r14d, %rcx
	leaq	(%rax,%rcx,8), %rsi
Ltmp170:
	##DEBUG_VALUE: exec_arguments:cmdn <- [%RBP+-2488]
	movl	-2488(%rbp), %edx       ## 4-byte Reload
Ltmp171:
	##DEBUG_VALUE: exec_arguments:cmdn <- %EDX
	.loc	1 165 13 is_stmt 0      ## c_posix.c:165:13
	movslq	%edx, %rcx
	.loc	1 165 22                ## c_posix.c:165:22
	incl	%edx
Ltmp172:
	movl	%edx, -2488(%rbp)       ## 4-byte Spill
	.loc	1 165 26                ## c_posix.c:165:26
	movq	-2496(%rbp), %rdx       ## 8-byte Reload
	movq	%rsi, (%rdx,%rcx,8)
Ltmp173:
LBB0_89:                                ##   in Loop: Header=BB0_82 Depth=2
	##DEBUG_VALUE: main:argc <- %EDI
	##DEBUG_VALUE: main:argv <- [%RBP+-2528]
	##DEBUG_VALUE: main:argc2 <- 0
	##DEBUG_VALUE: main:i <- 1
	##DEBUG_VALUE: main:isBackground <- 1
	##DEBUG_VALUE: main:built_in_command <- 0
	##DEBUG_VALUE: main:status <- 0
	##DEBUG_VALUE: main:max <- 80
	##DEBUG_VALUE: main:pos <- 0
	##DEBUG_VALUE: main:len <- 1
	##DEBUG_VALUE: main:breakloop <- 0
	##DEBUG_VALUE: main:pid_temp <- 0
	##DEBUG_VALUE: main:ret <- 1
	##DEBUG_VALUE: exec_arguments:cmdn <- 1
	##DEBUG_VALUE: exec_arguments:argn <- 0
	##DEBUG_VALUE: i <- 1
	.loc	1 151 5 is_stmt 1       ## c_posix.c:151:5
	incq	%rbx
	.loc	1 151 23 is_stmt 0      ## c_posix.c:151:23
Ltmp174:
	cmpq	-2512(%rbp), %rbx       ## 8-byte Folded Reload
	jl	LBB0_82
Ltmp175:
LBB0_80:                                ## %._crit_edge.i
                                        ##   in Loop: Header=BB0_11 Depth=1
	##DEBUG_VALUE: main:argc <- %EDI
	##DEBUG_VALUE: main:argv <- [%RBP+-2528]
	##DEBUG_VALUE: main:argc2 <- 0
	##DEBUG_VALUE: main:i <- 1
	##DEBUG_VALUE: main:isBackground <- 1
	##DEBUG_VALUE: main:built_in_command <- 0
	##DEBUG_VALUE: main:status <- 0
	##DEBUG_VALUE: main:max <- 80
	##DEBUG_VALUE: main:pos <- 0
	##DEBUG_VALUE: main:len <- 1
	##DEBUG_VALUE: main:breakloop <- 0
	##DEBUG_VALUE: main:pid_temp <- 0
	##DEBUG_VALUE: main:ret <- 1
	##DEBUG_VALUE: exec_arguments:cmdn <- 1
	##DEBUG_VALUE: exec_arguments:argn <- 0
	.loc	1 167 9 is_stmt 1       ## c_posix.c:167:9
	movslq	%r14d, %rcx
	.loc	1 167 24 is_stmt 0      ## c_posix.c:167:24
	cmpq	$0, -8(%rax,%rcx,8)
	je	LBB0_81
Ltmp176:
## BB#90:                               ##   in Loop: Header=BB0_11 Depth=1
	##DEBUG_VALUE: main:argc <- %EDI
	##DEBUG_VALUE: main:argv <- [%RBP+-2528]
	##DEBUG_VALUE: main:argc2 <- 0
	##DEBUG_VALUE: main:i <- 1
	##DEBUG_VALUE: main:isBackground <- 1
	##DEBUG_VALUE: main:built_in_command <- 0
	##DEBUG_VALUE: main:status <- 0
	##DEBUG_VALUE: main:max <- 80
	##DEBUG_VALUE: main:pos <- 0
	##DEBUG_VALUE: main:len <- 1
	##DEBUG_VALUE: main:breakloop <- 0
	##DEBUG_VALUE: main:pid_temp <- 0
	##DEBUG_VALUE: main:ret <- 1
	##DEBUG_VALUE: exec_arguments:cmdn <- 1
	##DEBUG_VALUE: exec_arguments:argn <- 0
	.loc	1 169 16 is_stmt 1      ## c_posix.c:169:16
	movq	$0, (%rax,%rcx,8)
	movq	%rax, -2504(%rbp)       ## 8-byte Spill
	.loc	1 125 5                 ## c_posix.c:125:5
Ltmp177:
	leaq	L_str.57(%rip), %rdi
Ltmp178:
	callq	_puts
Ltmp179:
	##DEBUG_VALUE: i <- 0
	.loc	1 126 5                 ## c_posix.c:126:5
	cmpl	$0, -2488(%rbp)         ## 4-byte Folded Reload
	movl	$0, %r13d
Ltmp180:
	.loc	1 117 9                 ## c_posix.c:117:9
	leaq	L_.str.44(%rip), %r14
	jle	LBB0_95
Ltmp181:
	.align	4, 0x90
LBB0_91:                                ## %.lr.ph5.i.i
                                        ##   Parent Loop BB0_11 Depth=1
                                        ## =>  This Loop Header: Depth=2
                                        ##       Child Loop BB0_93 Depth 3
	##DEBUG_VALUE: main:argc <- %EDI
	##DEBUG_VALUE: main:argv <- [%RBP+-2528]
	##DEBUG_VALUE: main:argc2 <- 0
	##DEBUG_VALUE: main:i <- 1
	##DEBUG_VALUE: main:isBackground <- 1
	##DEBUG_VALUE: main:built_in_command <- 0
	##DEBUG_VALUE: main:status <- 0
	##DEBUG_VALUE: main:max <- 80
	##DEBUG_VALUE: main:pos <- 0
	##DEBUG_VALUE: main:len <- 1
	##DEBUG_VALUE: main:breakloop <- 0
	##DEBUG_VALUE: main:pid_temp <- 0
	##DEBUG_VALUE: main:ret <- 1
	##DEBUG_VALUE: exec_arguments:cmdn <- 1
	##DEBUG_VALUE: exec_arguments:argn <- 0
	##DEBUG_VALUE: i <- 0
	xorl	%eax, %eax
	.loc	1 128 9                 ## c_posix.c:128:9
Ltmp182:
	leaq	L_.str.50(%rip), %rdi
Ltmp183:
	movl	%r13d, %esi
	callq	_printf
	.loc	1 129 23                ## c_posix.c:129:23
	movq	-2496(%rbp), %rax       ## 8-byte Reload
	movq	(%rax,%r13,8), %rbx
Ltmp184:
	##DEBUG_VALUE: args <- %RBX
	.loc	1 130 16                ## c_posix.c:130:16
	movq	(%rbx), %rsi
	.loc	1 130 22 is_stmt 0      ## c_posix.c:130:22
	testq	%rsi, %rsi
	je	LBB0_94
Ltmp185:
## BB#92:                               ## %.lr.ph.i.2.i.preheader
                                        ##   in Loop: Header=BB0_91 Depth=2
	##DEBUG_VALUE: main:argc <- %EDI
	##DEBUG_VALUE: main:argv <- [%RBP+-2528]
	##DEBUG_VALUE: main:argc2 <- 0
	##DEBUG_VALUE: main:i <- 1
	##DEBUG_VALUE: main:isBackground <- 1
	##DEBUG_VALUE: main:built_in_command <- 0
	##DEBUG_VALUE: main:status <- 0
	##DEBUG_VALUE: main:max <- 80
	##DEBUG_VALUE: main:pos <- 0
	##DEBUG_VALUE: main:len <- 1
	##DEBUG_VALUE: main:breakloop <- 0
	##DEBUG_VALUE: main:pid_temp <- 0
	##DEBUG_VALUE: main:ret <- 1
	##DEBUG_VALUE: exec_arguments:cmdn <- 1
	##DEBUG_VALUE: exec_arguments:argn <- 0
	##DEBUG_VALUE: i <- 0
	##DEBUG_VALUE: args <- %RBX
	.loc	1 131 34 is_stmt 1      ## c_posix.c:131:34
	addq	$8, %rbx
Ltmp186:
	.align	4, 0x90
LBB0_93:                                ## %.lr.ph.i.2.i
                                        ##   Parent Loop BB0_11 Depth=1
                                        ##     Parent Loop BB0_91 Depth=2
                                        ## =>    This Inner Loop Header: Depth=3
	##DEBUG_VALUE: main:argc <- %EDI
	##DEBUG_VALUE: main:argv <- [%RBP+-2528]
	##DEBUG_VALUE: main:argc2 <- 0
	##DEBUG_VALUE: main:i <- 1
	##DEBUG_VALUE: main:isBackground <- 1
	##DEBUG_VALUE: main:built_in_command <- 0
	##DEBUG_VALUE: main:status <- 0
	##DEBUG_VALUE: main:max <- 80
	##DEBUG_VALUE: main:pos <- 0
	##DEBUG_VALUE: main:len <- 1
	##DEBUG_VALUE: main:breakloop <- 0
	##DEBUG_VALUE: main:pid_temp <- 0
	##DEBUG_VALUE: main:ret <- 1
	##DEBUG_VALUE: exec_arguments:cmdn <- 1
	##DEBUG_VALUE: exec_arguments:argn <- 0
	##DEBUG_VALUE: i <- 0
	xorl	%eax, %eax
	.loc	1 131 13 is_stmt 0      ## c_posix.c:131:13
	movq	%r14, %rdi
Ltmp187:
	callq	_printf
	.loc	1 130 16 is_stmt 1      ## c_posix.c:130:16
	movq	(%rbx), %rsi
	.loc	1 130 9 is_stmt 0       ## c_posix.c:130:9
	addq	$8, %rbx
	testq	%rsi, %rsi
	jne	LBB0_93
Ltmp188:
LBB0_94:                                ## %._crit_edge.i.6.i
                                        ##   in Loop: Header=BB0_91 Depth=2
	##DEBUG_VALUE: main:argc <- %EDI
	##DEBUG_VALUE: main:argv <- [%RBP+-2528]
	##DEBUG_VALUE: main:argc2 <- 0
	##DEBUG_VALUE: main:i <- 1
	##DEBUG_VALUE: main:isBackground <- 1
	##DEBUG_VALUE: main:built_in_command <- 0
	##DEBUG_VALUE: main:status <- 0
	##DEBUG_VALUE: main:max <- 80
	##DEBUG_VALUE: main:pos <- 0
	##DEBUG_VALUE: main:len <- 1
	##DEBUG_VALUE: main:breakloop <- 0
	##DEBUG_VALUE: main:pid_temp <- 0
	##DEBUG_VALUE: main:ret <- 1
	##DEBUG_VALUE: exec_arguments:cmdn <- 1
	##DEBUG_VALUE: exec_arguments:argn <- 0
	##DEBUG_VALUE: i <- 0
	.loc	1 118 5 is_stmt 1       ## c_posix.c:118:5
	movl	$10, %edi
Ltmp189:
	.loc	1 132 9                 ## c_posix.c:132:9
	callq	_putchar
Ltmp190:
	.loc	1 126 5                 ## c_posix.c:126:5
	incq	%r13
	cmpl	-2488(%rbp), %r13d      ## 4-byte Folded Reload
	jne	LBB0_91
Ltmp191:
LBB0_95:                                ## %dump_pipeline.exit.i
                                        ##   in Loop: Header=BB0_11 Depth=1
	##DEBUG_VALUE: main:argc <- %EDI
	##DEBUG_VALUE: main:argv <- [%RBP+-2528]
	##DEBUG_VALUE: main:argc2 <- 0
	##DEBUG_VALUE: main:i <- 1
	##DEBUG_VALUE: main:isBackground <- 1
	##DEBUG_VALUE: main:built_in_command <- 0
	##DEBUG_VALUE: main:status <- 0
	##DEBUG_VALUE: main:max <- 80
	##DEBUG_VALUE: main:pos <- 0
	##DEBUG_VALUE: main:len <- 1
	##DEBUG_VALUE: main:breakloop <- 0
	##DEBUG_VALUE: main:pid_temp <- 0
	##DEBUG_VALUE: main:ret <- 1
	##DEBUG_VALUE: exec_arguments:cmdn <- 1
	##DEBUG_VALUE: exec_arguments:argn <- 0
	.loc	1 134 5                 ## c_posix.c:134:5
	leaq	L_str.58(%rip), %rdi
Ltmp192:
	callq	_puts
Ltmp193:
	.loc	1 119 12                ## c_posix.c:119:12
	movq	___stdoutp@GOTPCREL(%rip), %rax
Ltmp194:
	.loc	1 135 12                ## c_posix.c:135:12
	movq	(%rax), %rdi
	.loc	1 135 5 is_stmt 0       ## c_posix.c:135:5
	callq	_fflush
Ltmp195:
	.loc	1 88 5 is_stmt 1        ## c_posix.c:88:5
	cmpl	$0, -2488(%rbp)         ## 4-byte Folded Reload
	jle	LBB0_123
## BB#96:                               ##   in Loop: Header=BB0_11 Depth=1
Ltmp196:
	##DEBUG_VALUE: main:argc <- %EDI
	##DEBUG_VALUE: main:argv <- [%RBP+-2528]
	##DEBUG_VALUE: main:argc2 <- 0
	##DEBUG_VALUE: main:i <- 1
	##DEBUG_VALUE: main:isBackground <- 1
	##DEBUG_VALUE: main:built_in_command <- 0
	##DEBUG_VALUE: main:status <- 0
	##DEBUG_VALUE: main:max <- 80
	##DEBUG_VALUE: main:pos <- 0
	##DEBUG_VALUE: main:len <- 1
	##DEBUG_VALUE: main:breakloop <- 0
	##DEBUG_VALUE: main:pid_temp <- 0
	##DEBUG_VALUE: main:ret <- 1
	##DEBUG_VALUE: exec_arguments:cmdn <- 1
	##DEBUG_VALUE: exec_arguments:argn <- 0
	.loc	1 90 16                 ## c_posix.c:90:16
	callq	_fork
Ltmp197:
	##DEBUG_VALUE: exec_pipeline:pid <- %EAX
	.loc	1 90 9 is_stmt 0        ## c_posix.c:90:9
	testl	%eax, %eax
Ltmp198:
	.loc	1 105 17 is_stmt 1      ## c_posix.c:105:17
	movq	___stderrp@GOTPCREL(%rip), %rbx
	movq	%rbx, %r13
	.loc	1 105 9 is_stmt 0       ## c_posix.c:105:9
	leaq	L_.str.56(%rip), %rbx
	js	LBB0_97
Ltmp199:
## BB#98:                               ##   in Loop: Header=BB0_11 Depth=1
	##DEBUG_VALUE: main:argc <- %EDI
	##DEBUG_VALUE: main:argv <- [%RBP+-2528]
	##DEBUG_VALUE: main:argc2 <- 0
	##DEBUG_VALUE: main:i <- 1
	##DEBUG_VALUE: main:isBackground <- 1
	##DEBUG_VALUE: main:built_in_command <- 0
	##DEBUG_VALUE: main:status <- 0
	##DEBUG_VALUE: main:max <- 80
	##DEBUG_VALUE: main:pos <- 0
	##DEBUG_VALUE: main:len <- 1
	##DEBUG_VALUE: main:breakloop <- 0
	##DEBUG_VALUE: main:pid_temp <- 0
	##DEBUG_VALUE: main:ret <- 1
	##DEBUG_VALUE: exec_arguments:cmdn <- 1
	##DEBUG_VALUE: exec_arguments:argn <- 0
	jne	LBB0_100
Ltmp200:
## BB#99:                               ##   in Loop: Header=BB0_11 Depth=1
	##DEBUG_VALUE: main:argc <- %EDI
	##DEBUG_VALUE: main:argv <- [%RBP+-2528]
	##DEBUG_VALUE: main:argc2 <- 0
	##DEBUG_VALUE: main:i <- 1
	##DEBUG_VALUE: main:isBackground <- 1
	##DEBUG_VALUE: main:built_in_command <- 0
	##DEBUG_VALUE: main:status <- 0
	##DEBUG_VALUE: main:max <- 80
	##DEBUG_VALUE: main:pos <- 0
	##DEBUG_VALUE: main:len <- 1
	##DEBUG_VALUE: main:breakloop <- 0
	##DEBUG_VALUE: main:pid_temp <- 0
	##DEBUG_VALUE: main:ret <- 1
	##DEBUG_VALUE: exec_arguments:cmdn <- 1
	##DEBUG_VALUE: exec_arguments:argn <- 0
	.loc	1 94 5 is_stmt 1        ## c_posix.c:94:5
	movl	-2488(%rbp), %edi       ## 4-byte Reload
Ltmp201:
	movq	-2496(%rbp), %rsi       ## 8-byte Reload
	callq	_exec_nth_command
	jmp	LBB0_100
LBB0_97:                                ## %.thread.i.i
                                        ##   in Loop: Header=BB0_11 Depth=1
Ltmp202:
	##DEBUG_VALUE: main:argc <- %EDI
	##DEBUG_VALUE: main:argv <- [%RBP+-2528]
	##DEBUG_VALUE: main:argc2 <- 0
	##DEBUG_VALUE: main:i <- 1
	##DEBUG_VALUE: main:isBackground <- 1
	##DEBUG_VALUE: main:built_in_command <- 0
	##DEBUG_VALUE: main:status <- 0
	##DEBUG_VALUE: main:max <- 80
	##DEBUG_VALUE: main:pos <- 0
	##DEBUG_VALUE: main:len <- 1
	##DEBUG_VALUE: main:breakloop <- 0
	##DEBUG_VALUE: main:pid_temp <- 0
	##DEBUG_VALUE: main:ret <- 1
	##DEBUG_VALUE: exec_arguments:cmdn <- 1
	##DEBUG_VALUE: exec_arguments:argn <- 0
	xorl	%eax, %eax
	.loc	1 91 9                  ## c_posix.c:91:9
Ltmp203:
	callq	_err_syswarn
Ltmp204:
LBB0_100:                               ## %exec_arguments.exit
                                        ##   in Loop: Header=BB0_11 Depth=1
	##DEBUG_VALUE: main:argc <- %EDI
	##DEBUG_VALUE: main:argv <- [%RBP+-2528]
	##DEBUG_VALUE: main:argc2 <- 0
	##DEBUG_VALUE: main:i <- 1
	##DEBUG_VALUE: main:isBackground <- 1
	##DEBUG_VALUE: main:built_in_command <- 0
	##DEBUG_VALUE: main:status <- 0
	##DEBUG_VALUE: main:max <- 80
	##DEBUG_VALUE: main:pos <- 0
	##DEBUG_VALUE: main:len <- 1
	##DEBUG_VALUE: main:breakloop <- 0
	##DEBUG_VALUE: main:pid_temp <- 0
	##DEBUG_VALUE: main:ret <- 1
	##DEBUG_VALUE: exec_arguments:cmdn <- 1
	##DEBUG_VALUE: exec_arguments:argn <- 0
	.loc	1 173 5                 ## c_posix.c:173:5
	movq	-2496(%rbp), %rdi       ## 8-byte Reload
Ltmp205:
	callq	_free
	.loc	1 174 5                 ## c_posix.c:174:5
	movq	-2504(%rbp), %rdi       ## 8-byte Reload
	callq	_free
Ltmp206:
	.loc	1 100 20                ## c_posix.c:100:20
	callq	_getpid
	movl	%eax, %r14d
	jmp	LBB0_102
	.align	4, 0x90
LBB0_101:                               ## %.lr.ph.i.11
                                        ##   in Loop: Header=BB0_102 Depth=2
Ltmp207:
	##DEBUG_VALUE: main:argc <- %EDI
	##DEBUG_VALUE: main:argv <- [%RBP+-2528]
	##DEBUG_VALUE: main:argc2 <- 0
	##DEBUG_VALUE: main:i <- 1
	##DEBUG_VALUE: main:isBackground <- 1
	##DEBUG_VALUE: main:built_in_command <- 0
	##DEBUG_VALUE: main:status <- 0
	##DEBUG_VALUE: main:max <- 80
	##DEBUG_VALUE: main:pos <- 0
	##DEBUG_VALUE: main:len <- 1
	##DEBUG_VALUE: main:breakloop <- 0
	##DEBUG_VALUE: main:pid_temp <- 0
	##DEBUG_VALUE: main:ret <- 1
	.loc	1 105 17                ## c_posix.c:105:17
	movq	(%r13), %rdi
Ltmp208:
	.loc	1 106 43                ## c_posix.c:106:43
	movl	-192(%rbp), %r8d
	xorl	%eax, %eax
	.loc	1 105 9                 ## c_posix.c:105:9
	movq	%rbx, %rsi
	movl	%r14d, %edx
	callq	_fprintf
Ltmp209:
LBB0_102:                               ## %.lr.ph.i.11
                                        ##   Parent Loop BB0_11 Depth=1
                                        ## =>  This Inner Loop Header: Depth=2
	##DEBUG_VALUE: corpse_collector:status <- [%R15+0]
	xorl	%edi, %edi
	xorl	%edx, %edx
	.loc	1 103 22                ## c_posix.c:103:22
	movq	%r15, %rsi
	callq	_waitpid
	movl	%eax, %ecx
Ltmp210:
	##DEBUG_VALUE: corpse_collector:corpse <- %ECX
	.loc	1 103 5 is_stmt 0       ## c_posix.c:103:5
	cmpl	$-1, %ecx
	jne	LBB0_101
Ltmp211:
## BB#103:                              ## %corpse_collector.exit
                                        ##   in Loop: Header=BB0_11 Depth=1
	##DEBUG_VALUE: main:argc <- %EDI
	##DEBUG_VALUE: main:argv <- [%RBP+-2528]
	##DEBUG_VALUE: main:argc2 <- 0
	##DEBUG_VALUE: main:i <- 1
	##DEBUG_VALUE: main:isBackground <- 1
	##DEBUG_VALUE: main:built_in_command <- 0
	##DEBUG_VALUE: main:status <- 0
	##DEBUG_VALUE: main:max <- 80
	##DEBUG_VALUE: main:pos <- 0
	##DEBUG_VALUE: main:len <- 1
	##DEBUG_VALUE: main:breakloop <- 0
	##DEBUG_VALUE: main:pid_temp <- 0
	##DEBUG_VALUE: main:ret <- 1
	.loc	1 627 17 is_stmt 1      ## c_posix.c:627:17
	cmpl	$1, %r12d
	jne	LBB0_106
Ltmp212:
## BB#104:                              ## %corpse_collector.exit
                                        ##   in Loop: Header=BB0_11 Depth=1
	##DEBUG_VALUE: main:argc <- %EDI
	##DEBUG_VALUE: main:argv <- [%RBP+-2528]
	##DEBUG_VALUE: main:argc2 <- 0
	##DEBUG_VALUE: main:i <- 1
	##DEBUG_VALUE: main:isBackground <- 1
	##DEBUG_VALUE: main:built_in_command <- 0
	##DEBUG_VALUE: main:status <- 0
	##DEBUG_VALUE: main:max <- 80
	##DEBUG_VALUE: main:pos <- 0
	##DEBUG_VALUE: main:len <- 1
	##DEBUG_VALUE: main:breakloop <- 0
	##DEBUG_VALUE: main:pid_temp <- 0
	##DEBUG_VALUE: main:ret <- 1
	cmpl	$0, -2516(%rbp)         ## 4-byte Folded Reload
	jne	LBB0_106
Ltmp213:
## BB#105:                              ##   in Loop: Header=BB0_11 Depth=1
	##DEBUG_VALUE: main:argc <- %EDI
	##DEBUG_VALUE: main:argv <- [%RBP+-2528]
	##DEBUG_VALUE: main:argc2 <- 0
	##DEBUG_VALUE: main:i <- 1
	##DEBUG_VALUE: main:isBackground <- 1
	##DEBUG_VALUE: main:built_in_command <- 0
	##DEBUG_VALUE: main:status <- 0
	##DEBUG_VALUE: main:max <- 80
	##DEBUG_VALUE: main:pos <- 0
	##DEBUG_VALUE: main:len <- 1
	##DEBUG_VALUE: main:breakloop <- 0
	##DEBUG_VALUE: main:pid_temp <- 0
	##DEBUG_VALUE: main:ret <- 1
	.loc	1 641 26                ## c_posix.c:641:26
	movl	-2280(%rbp), %edi
Ltmp214:
	xorl	%esi, %esi
	.loc	1 641 21 is_stmt 0      ## c_posix.c:641:21
	callq	_dup2
	.loc	1 642 27 is_stmt 1      ## c_posix.c:642:27
	movl	-2280(%rbp), %edi
	.loc	1 642 21 is_stmt 0      ## c_posix.c:642:21
	callq	_close
	.loc	1 643 27 is_stmt 1      ## c_posix.c:643:27
	movl	-2276(%rbp), %edi
	.loc	1 643 21 is_stmt 0      ## c_posix.c:643:21
	callq	_close
Ltmp215:
LBB0_106:                               ##   in Loop: Header=BB0_11 Depth=1
	##DEBUG_VALUE: main:argc <- %EDI
	##DEBUG_VALUE: main:argv <- [%RBP+-2528]
	##DEBUG_VALUE: main:argc2 <- 0
	##DEBUG_VALUE: main:i <- 1
	##DEBUG_VALUE: main:isBackground <- 1
	##DEBUG_VALUE: main:built_in_command <- 0
	##DEBUG_VALUE: main:status <- 0
	##DEBUG_VALUE: main:max <- 80
	##DEBUG_VALUE: main:pos <- 0
	##DEBUG_VALUE: main:len <- 1
	##DEBUG_VALUE: main:breakloop <- 0
	##DEBUG_VALUE: main:pid_temp <- 0
	##DEBUG_VALUE: main:ret <- 1
	.loc	1 650 17 is_stmt 1      ## c_posix.c:650:17
	testl	%r12d, %r12d
	je	LBB0_107
Ltmp216:
## BB#113:                              ##   in Loop: Header=BB0_11 Depth=1
	##DEBUG_VALUE: main:argc <- %EDI
	##DEBUG_VALUE: main:argv <- [%RBP+-2528]
	##DEBUG_VALUE: main:argc2 <- 0
	##DEBUG_VALUE: main:i <- 1
	##DEBUG_VALUE: main:isBackground <- 1
	##DEBUG_VALUE: main:built_in_command <- 0
	##DEBUG_VALUE: main:status <- 0
	##DEBUG_VALUE: main:max <- 80
	##DEBUG_VALUE: main:pos <- 0
	##DEBUG_VALUE: main:len <- 1
	##DEBUG_VALUE: main:breakloop <- 0
	##DEBUG_VALUE: main:pid_temp <- 0
	##DEBUG_VALUE: main:ret <- 1
	.loc	1 675 22                ## c_posix.c:675:22
	cmpl	$1, %r12d
	jne	LBB0_115
Ltmp217:
## BB#114:                              ##   in Loop: Header=BB0_11 Depth=1
	##DEBUG_VALUE: main:argc <- %EDI
	##DEBUG_VALUE: main:argv <- [%RBP+-2528]
	##DEBUG_VALUE: main:argc2 <- 0
	##DEBUG_VALUE: main:i <- 1
	##DEBUG_VALUE: main:isBackground <- 1
	##DEBUG_VALUE: main:built_in_command <- 0
	##DEBUG_VALUE: main:status <- 0
	##DEBUG_VALUE: main:max <- 80
	##DEBUG_VALUE: main:pos <- 0
	##DEBUG_VALUE: main:len <- 1
	##DEBUG_VALUE: main:breakloop <- 0
	##DEBUG_VALUE: main:pid_temp <- 0
	##DEBUG_VALUE: main:ret <- 1
	.loc	1 677 23                ## c_posix.c:677:23
	movl	-2280(%rbp), %edi
Ltmp218:
	.loc	1 677 17 is_stmt 0      ## c_posix.c:677:17
	callq	_close
	.loc	1 678 23 is_stmt 1      ## c_posix.c:678:23
	movl	-2276(%rbp), %edi
	.loc	1 678 17 is_stmt 0      ## c_posix.c:678:17
	callq	_close
Ltmp219:
LBB0_115:                               ##   in Loop: Header=BB0_11 Depth=1
	.loc	1 321 25 is_stmt 1      ## c_posix.c:321:25
	leaq	L_.str.28(%rip), %r13
	jmp	LBB0_116
Ltmp220:
LBB0_107:                               ##   in Loop: Header=BB0_11 Depth=1
	##DEBUG_VALUE: main:argc <- %EDI
	##DEBUG_VALUE: main:argv <- [%RBP+-2528]
	##DEBUG_VALUE: main:argc2 <- 0
	##DEBUG_VALUE: main:i <- 1
	##DEBUG_VALUE: main:isBackground <- 1
	##DEBUG_VALUE: main:built_in_command <- 0
	##DEBUG_VALUE: main:status <- 0
	##DEBUG_VALUE: main:max <- 80
	##DEBUG_VALUE: main:pos <- 0
	##DEBUG_VALUE: main:len <- 1
	##DEBUG_VALUE: main:breakloop <- 0
	##DEBUG_VALUE: main:pid_temp <- 0
	##DEBUG_VALUE: main:ret <- 1
	.loc	1 652 25                ## c_posix.c:652:25
	movl	_foreground(%rip), %edi
Ltmp221:
	##DEBUG_VALUE: main:status <- undef
	xorl	%edx, %edx
	leaq	-2404(%rbp), %rsi
	.loc	1 652 17 is_stmt 0      ## c_posix.c:652:17
	callq	_waitpid
Ltmp222:
	##DEBUG_VALUE: main:time_end <- undef
	xorl	%esi, %esi
	leaq	-2440(%rbp), %rdi
	.loc	1 655 17 is_stmt 1      ## c_posix.c:655:17
	callq	_gettimeofday
	.loc	1 656 34                ## c_posix.c:656:34
	movq	-2440(%rbp), %rax
	.loc	1 656 41 is_stmt 0      ## c_posix.c:656:41
	subq	-2424(%rbp), %rax
	.loc	1 656 62                ## c_posix.c:656:62
	imulq	$1000000, %rax, %rax    ## imm = 0xF4240
	.loc	1 657 24 is_stmt 1      ## c_posix.c:657:24
	movslq	-2432(%rbp), %rcx
	.loc	1 656 72                ## c_posix.c:656:72
	addq	%rax, %rcx
	.loc	1 657 43                ## c_posix.c:657:43
	movslq	-2416(%rbp), %rax
	.loc	1 657 41 is_stmt 0      ## c_posix.c:657:41
	subq	%rax, %rcx
Ltmp223:
	##DEBUG_VALUE: main:time <- %RCX
	.loc	1 658 62 is_stmt 1      ## c_posix.c:658:62
	movq	%rcx, %rax
	movabsq	$2361183241434822607, %rdx ## imm = 0x20C49BA5E353F7CF
	imulq	%rdx
	movq	%rdx, %rax
	shrq	$63, %rax
	sarq	$7, %rdx
	addq	%rax, %rdx
	.loc	1 658 75 is_stmt 0      ## c_posix.c:658:75
	imulq	$1000, %rdx, %rax       ## imm = 0x3E8
	subq	%rax, %rcx
Ltmp224:
	xorl	%eax, %eax
	.loc	1 658 17                ## c_posix.c:658:17
	leaq	L_.str.26(%rip), %rdi
	movq	%rdx, %rsi
	movq	%rcx, %rdx
	callq	_printf
	.loc	1 660 21 is_stmt 1      ## c_posix.c:660:21
	cmpl	$1, _isSignal(%rip)
Ltmp225:
	.loc	1 321 25                ## c_posix.c:321:25
	leaq	L_.str.28(%rip), %r13
	jne	LBB0_116
Ltmp226:
## BB#108:                              ##   in Loop: Header=BB0_11 Depth=1
	##DEBUG_VALUE: main:argc <- %EDI
	##DEBUG_VALUE: main:argv <- [%RBP+-2528]
	##DEBUG_VALUE: main:argc2 <- 0
	##DEBUG_VALUE: main:i <- 1
	##DEBUG_VALUE: main:isBackground <- 1
	##DEBUG_VALUE: main:built_in_command <- 0
	##DEBUG_VALUE: main:status <- 0
	##DEBUG_VALUE: main:max <- 80
	##DEBUG_VALUE: main:pos <- 0
	##DEBUG_VALUE: main:len <- 1
	##DEBUG_VALUE: main:breakloop <- 0
	##DEBUG_VALUE: main:pid_temp <- 0
	##DEBUG_VALUE: main:ret <- 1
	##DEBUG_VALUE: main:status <- undef
	##DEBUG_VALUE: main:time_end <- undef
	##DEBUG_VALUE: main:my_sig <- undef
	.loc	1 662 29                ## c_posix.c:662:29
	movl	$2, %edi
Ltmp227:
	xorl	%edx, %edx
	leaq	-2444(%rbp), %rsi
	callq	_sigprocmask
Ltmp228:
	##DEBUG_VALUE: Janitor:status <- 20
	##DEBUG_VALUE: a <- 0
	.loc	1 672 21                ## c_posix.c:672:21
	movl	$20, -192(%rbp)
	jmp	LBB0_109
	.align	4, 0x90
LBB0_112:                               ##   in Loop: Header=BB0_109 Depth=2
Ltmp229:
	##DEBUG_VALUE: main:argc <- %EDI
	##DEBUG_VALUE: main:argv <- [%RBP+-2528]
	##DEBUG_VALUE: main:argc2 <- 0
	##DEBUG_VALUE: main:i <- 1
	##DEBUG_VALUE: main:isBackground <- 1
	##DEBUG_VALUE: main:built_in_command <- 0
	##DEBUG_VALUE: main:status <- 0
	##DEBUG_VALUE: main:max <- 80
	##DEBUG_VALUE: main:pos <- 0
	##DEBUG_VALUE: main:len <- 1
	##DEBUG_VALUE: main:breakloop <- 0
	##DEBUG_VALUE: main:pid_temp <- 0
	##DEBUG_VALUE: main:ret <- 1
	##DEBUG_VALUE: main:my_sig <- undef
	##DEBUG_VALUE: main:status <- undef
	##DEBUG_VALUE: main:time_end <- undef
	##DEBUG_VALUE: a <- 0
	##DEBUG_VALUE: Janitor:status <- 20
	##DEBUG_VALUE: a <- 1
	##DEBUG_VALUE: Janitor:status <- [%R15+0]
	xorl	%eax, %eax
	.loc	1 321 25                ## c_posix.c:321:25
Ltmp230:
	movq	%r13, %rdi
Ltmp231:
	movl	%ecx, %esi
	callq	_printf
Ltmp232:
LBB0_109:                               ##   Parent Loop BB0_11 Depth=1
                                        ## =>  This Inner Loop Header: Depth=2
	##DEBUG_VALUE: Janitor:status <- [%R15+0]
	##DEBUG_VALUE: a <- 1
	.loc	1 308 29                ## c_posix.c:308:29
	movl	$-1, %edi
	movl	$1, %edx
Ltmp233:
	.loc	1 308 29 is_stmt 0      ## c_posix.c:308:29
	movq	%r15, %rsi
	callq	_waitpid
	movl	%eax, %ecx
Ltmp234:
	##DEBUG_VALUE: pid_my1 <- %ECX
	.loc	1 313 17 is_stmt 1      ## c_posix.c:313:17
	testl	%ecx, %ecx
	jle	LBB0_116
Ltmp235:
## BB#110:                              ## %.lr.ph26
                                        ##   in Loop: Header=BB0_109 Depth=2
	##DEBUG_VALUE: main:argc <- %EDI
	##DEBUG_VALUE: main:argv <- [%RBP+-2528]
	##DEBUG_VALUE: main:argc2 <- 0
	##DEBUG_VALUE: main:i <- 1
	##DEBUG_VALUE: main:isBackground <- 1
	##DEBUG_VALUE: main:built_in_command <- 0
	##DEBUG_VALUE: main:status <- 0
	##DEBUG_VALUE: main:max <- 80
	##DEBUG_VALUE: main:pos <- 0
	##DEBUG_VALUE: main:len <- 1
	##DEBUG_VALUE: main:breakloop <- 0
	##DEBUG_VALUE: main:pid_temp <- 0
	##DEBUG_VALUE: main:ret <- 1
	##DEBUG_VALUE: main:my_sig <- undef
	##DEBUG_VALUE: main:status <- undef
	##DEBUG_VALUE: main:time_end <- undef
	##DEBUG_VALUE: a <- 0
	##DEBUG_VALUE: Janitor:status <- 20
	##DEBUG_VALUE: a <- 1
	##DEBUG_VALUE: Janitor:status <- [%R15+0]
	.loc	1 315 21                ## c_posix.c:315:21
	cmpl	_foreground(%rip), %ecx
	je	LBB0_109
Ltmp236:
## BB#111:                              ##   in Loop: Header=BB0_109 Depth=2
	##DEBUG_VALUE: main:argc <- %EDI
	##DEBUG_VALUE: main:argv <- [%RBP+-2528]
	##DEBUG_VALUE: main:argc2 <- 0
	##DEBUG_VALUE: main:i <- 1
	##DEBUG_VALUE: main:isBackground <- 1
	##DEBUG_VALUE: main:built_in_command <- 0
	##DEBUG_VALUE: main:status <- 0
	##DEBUG_VALUE: main:max <- 80
	##DEBUG_VALUE: main:pos <- 0
	##DEBUG_VALUE: main:len <- 1
	##DEBUG_VALUE: main:breakloop <- 0
	##DEBUG_VALUE: main:pid_temp <- 0
	##DEBUG_VALUE: main:ret <- 1
	##DEBUG_VALUE: main:my_sig <- undef
	##DEBUG_VALUE: main:status <- undef
	##DEBUG_VALUE: main:time_end <- undef
	##DEBUG_VALUE: a <- 0
	##DEBUG_VALUE: Janitor:status <- 20
	##DEBUG_VALUE: a <- 1
	##DEBUG_VALUE: Janitor:status <- [%R15+0]
	.loc	1 319 48                ## c_posix.c:319:48
	movl	-192(%rbp), %eax
	.loc	1 319 25 is_stmt 0      ## c_posix.c:319:25
	andl	$127, %eax
	cmpl	$127, %eax
	je	LBB0_109
	jmp	LBB0_112
Ltmp237:
LBB0_68:                                ##   in Loop: Header=BB0_11 Depth=1
	##DEBUG_VALUE: main:argc <- %EDI
	##DEBUG_VALUE: main:argv <- [%RBP+-2528]
	##DEBUG_VALUE: main:argc2 <- 0
	##DEBUG_VALUE: main:i <- 0
	##DEBUG_VALUE: main:isBackground <- 1
	##DEBUG_VALUE: main:built_in_command <- 0
	##DEBUG_VALUE: main:status <- 0
	##DEBUG_VALUE: main:max <- 80
	##DEBUG_VALUE: main:pos <- 0
	##DEBUG_VALUE: main:len <- 1
	##DEBUG_VALUE: main:breakloop <- 0
	##DEBUG_VALUE: main:pid_temp <- 0
	##DEBUG_VALUE: main:ret <- 1
	.loc	1 592 21 is_stmt 1      ## c_posix.c:592:21
	leaq	L_.str.25(%rip), %rdi
Ltmp238:
	callq	_perror
	jmp	LBB0_69
Ltmp239:
LBB0_31:                                ##   in Loop: Header=BB0_11 Depth=1
	##DEBUG_VALUE: main:argc <- %EDI
	##DEBUG_VALUE: main:argv <- [%RBP+-2528]
	##DEBUG_VALUE: main:argc2 <- 0
	##DEBUG_VALUE: main:i <- 0
	##DEBUG_VALUE: main:isBackground <- 0
	##DEBUG_VALUE: main:built_in_command <- 1
	##DEBUG_VALUE: main:status <- 0
	##DEBUG_VALUE: main:max <- 80
	##DEBUG_VALUE: main:pos <- 0
	##DEBUG_VALUE: main:len <- 1
	##DEBUG_VALUE: main:breakloop <- 0
	##DEBUG_VALUE: main:pid_temp <- 0
	##DEBUG_VALUE: main:ret <- 1
	.loc	1 496 21                ## c_posix.c:496:21
	leaq	L_.str.14(%rip), %rdi
Ltmp240:
LBB0_34:                                ##   in Loop: Header=BB0_11 Depth=1
	.loc	1 506 21                ## c_posix.c:506:21
	callq	_perror
	jmp	LBB0_35
Ltmp241:
LBB0_117:                               ## %.loopexit
	##DEBUG_VALUE: main:argc <- %EDI
	##DEBUG_VALUE: main:argc2 <- 0
	##DEBUG_VALUE: main:i <- 0
	##DEBUG_VALUE: main:isBackground <- 0
	##DEBUG_VALUE: main:built_in_command <- 0
	##DEBUG_VALUE: main:status <- 0
	##DEBUG_VALUE: main:max <- 80
	##DEBUG_VALUE: main:pos <- 0
	##DEBUG_VALUE: main:len <- 1
	##DEBUG_VALUE: main:breakloop <- 0
	##DEBUG_VALUE: main:pid_temp <- 0
	##DEBUG_VALUE: main:ret <- 1
	movq	___stack_chk_guard@GOTPCREL(%rip), %rax
	movq	(%rax), %rax
	cmpq	-48(%rbp), %rax
	jne	LBB0_124
Ltmp242:
## BB#118:                              ## %.loopexit
	##DEBUG_VALUE: main:argc <- %EDI
	##DEBUG_VALUE: main:argc2 <- 0
	##DEBUG_VALUE: main:i <- 0
	##DEBUG_VALUE: main:isBackground <- 0
	##DEBUG_VALUE: main:built_in_command <- 0
	##DEBUG_VALUE: main:status <- 0
	##DEBUG_VALUE: main:max <- 80
	##DEBUG_VALUE: main:pos <- 0
	##DEBUG_VALUE: main:len <- 1
	##DEBUG_VALUE: main:breakloop <- 0
	##DEBUG_VALUE: main:pid_temp <- 0
	##DEBUG_VALUE: main:ret <- 1
	.loc	1 686 5                 ## c_posix.c:686:5
	xorl	%eax, %eax
	addq	$2552, %rsp             ## imm = 0x9F8
	popq	%rbx
	popq	%r12
	popq	%r13
	popq	%r14
	popq	%r15
	popq	%rbp
	retq
Ltmp243:
LBB0_122:
	##DEBUG_VALUE: main:argc <- %EDI
	##DEBUG_VALUE: main:argc2 <- 0
	##DEBUG_VALUE: main:i <- 1
	##DEBUG_VALUE: main:isBackground <- 1
	##DEBUG_VALUE: main:built_in_command <- 0
	##DEBUG_VALUE: main:status <- 0
	##DEBUG_VALUE: main:max <- 80
	##DEBUG_VALUE: main:pos <- 0
	##DEBUG_VALUE: main:len <- 1
	##DEBUG_VALUE: main:breakloop <- 0
	##DEBUG_VALUE: main:pid_temp <- 0
	##DEBUG_VALUE: main:ret <- 1
	##DEBUG_VALUE: exec_arguments:cmdn <- 1
	##DEBUG_VALUE: exec_arguments:argn <- 0
	##DEBUG_VALUE: i <- 1
	.loc	1 158 17                ## c_posix.c:158:17
	leaq	L_.str.38(%rip), %rdi
Ltmp244:
	xorl	%eax, %eax
	callq	_err_sysexit
Ltmp245:
LBB0_86:
	##DEBUG_VALUE: main:argc <- %EDI
	##DEBUG_VALUE: main:argc2 <- 0
	##DEBUG_VALUE: main:i <- 1
	##DEBUG_VALUE: main:isBackground <- 1
	##DEBUG_VALUE: main:built_in_command <- 0
	##DEBUG_VALUE: main:status <- 0
	##DEBUG_VALUE: main:max <- 80
	##DEBUG_VALUE: main:pos <- 0
	##DEBUG_VALUE: main:len <- 1
	##DEBUG_VALUE: main:breakloop <- 0
	##DEBUG_VALUE: main:pid_temp <- 0
	##DEBUG_VALUE: main:ret <- 1
	##DEBUG_VALUE: exec_arguments:cmdn <- 1
	##DEBUG_VALUE: exec_arguments:argn <- 0
	##DEBUG_VALUE: i <- 1
	.loc	1 160 17                ## c_posix.c:160:17
	leaq	L_.str.39(%rip), %rdi
Ltmp246:
	xorl	%eax, %eax
	callq	_err_sysexit
Ltmp247:
LBB0_124:                               ## %.loopexit
	##DEBUG_VALUE: main:argc <- %EDI
	##DEBUG_VALUE: main:argc2 <- 0
	##DEBUG_VALUE: main:i <- 0
	##DEBUG_VALUE: main:isBackground <- 0
	##DEBUG_VALUE: main:built_in_command <- 0
	##DEBUG_VALUE: main:status <- 0
	##DEBUG_VALUE: main:max <- 80
	##DEBUG_VALUE: main:pos <- 0
	##DEBUG_VALUE: main:len <- 1
	##DEBUG_VALUE: main:breakloop <- 0
	##DEBUG_VALUE: main:pid_temp <- 0
	##DEBUG_VALUE: main:ret <- 1
	callq	___stack_chk_fail
Ltmp248:
LBB0_36:
	##DEBUG_VALUE: main:argc <- %EDI
	##DEBUG_VALUE: main:argc2 <- 0
	##DEBUG_VALUE: main:i <- 0
	##DEBUG_VALUE: main:isBackground <- 0
	##DEBUG_VALUE: main:built_in_command <- 1
	##DEBUG_VALUE: main:status <- 0
	##DEBUG_VALUE: main:max <- 80
	##DEBUG_VALUE: main:pos <- 0
	##DEBUG_VALUE: main:len <- 1
	##DEBUG_VALUE: main:breakloop <- 0
	##DEBUG_VALUE: main:pid_temp <- 0
	##DEBUG_VALUE: main:ret <- 1
	.loc	1 105 17                ## c_posix.c:105:17
	movq	___stderrp@GOTPCREL(%rip), %r13
Ltmp249:
	.loc	1 520 26                ## c_posix.c:520:26
	leaq	L_.str.17(%rip), %rdi
Ltmp250:
	callq	_getenv
Ltmp251:
	##DEBUG_VALUE: main:pagerValue <- %RAX
	.loc	1 521 17                ## c_posix.c:521:17
	testq	%rax, %rax
	jne	LBB0_40
Ltmp252:
## BB#37:
	##DEBUG_VALUE: main:argc <- %EDI
	##DEBUG_VALUE: main:argc2 <- 0
	##DEBUG_VALUE: main:i <- 0
	##DEBUG_VALUE: main:isBackground <- 0
	##DEBUG_VALUE: main:built_in_command <- 1
	##DEBUG_VALUE: main:status <- 0
	##DEBUG_VALUE: main:max <- 80
	##DEBUG_VALUE: main:pos <- 0
	##DEBUG_VALUE: main:len <- 1
	##DEBUG_VALUE: main:breakloop <- 0
	##DEBUG_VALUE: main:pid_temp <- 0
	##DEBUG_VALUE: main:ret <- 1
	.loc	1 523 21                ## c_posix.c:523:21
	cmpl	$0, -2532(%rbp)         ## 4-byte Folded Reload
	jne	LBB0_39
Ltmp253:
## BB#38:
	##DEBUG_VALUE: main:argc <- %EDI
	##DEBUG_VALUE: main:argc2 <- 0
	##DEBUG_VALUE: main:i <- 0
	##DEBUG_VALUE: main:isBackground <- 0
	##DEBUG_VALUE: main:built_in_command <- 1
	##DEBUG_VALUE: main:status <- 0
	##DEBUG_VALUE: main:max <- 80
	##DEBUG_VALUE: main:pos <- 0
	##DEBUG_VALUE: main:len <- 1
	##DEBUG_VALUE: main:breakloop <- 0
	##DEBUG_VALUE: main:pid_temp <- 0
	##DEBUG_VALUE: main:ret <- 1
	leaq	-2336(%rbp), %rbx
	.loc	1 525 34                ## c_posix.c:525:34
Ltmp254:
	leaq	L_.str.3(%rip), %rax
	jmp	LBB0_41
Ltmp255:
LBB0_40:
	##DEBUG_VALUE: main:argc <- %EDI
	##DEBUG_VALUE: main:argc2 <- 0
	##DEBUG_VALUE: main:i <- 0
	##DEBUG_VALUE: main:isBackground <- 0
	##DEBUG_VALUE: main:built_in_command <- 1
	##DEBUG_VALUE: main:status <- 0
	##DEBUG_VALUE: main:max <- 80
	##DEBUG_VALUE: main:pos <- 0
	##DEBUG_VALUE: main:len <- 1
	##DEBUG_VALUE: main:breakloop <- 0
	##DEBUG_VALUE: main:pid_temp <- 0
	##DEBUG_VALUE: main:ret <- 1
	##DEBUG_VALUE: main:pagerValue <- %RAX
	leaq	-2336(%rbp), %rbx
	jmp	LBB0_41
Ltmp256:
LBB0_81:
	##DEBUG_VALUE: main:argc <- %EDI
	##DEBUG_VALUE: main:argc2 <- 0
	##DEBUG_VALUE: main:i <- 1
	##DEBUG_VALUE: main:isBackground <- 1
	##DEBUG_VALUE: main:built_in_command <- 0
	##DEBUG_VALUE: main:status <- 0
	##DEBUG_VALUE: main:max <- 80
	##DEBUG_VALUE: main:pos <- 0
	##DEBUG_VALUE: main:len <- 1
	##DEBUG_VALUE: main:breakloop <- 0
	##DEBUG_VALUE: main:pid_temp <- 0
	##DEBUG_VALUE: main:ret <- 1
	##DEBUG_VALUE: exec_arguments:cmdn <- 1
	##DEBUG_VALUE: exec_arguments:argn <- 0
	.loc	1 168 9                 ## c_posix.c:168:9
	leaq	L_.str.40(%rip), %rdi
Ltmp257:
	xorl	%eax, %eax
	callq	_err_sysexit
Ltmp258:
LBB0_123:
	##DEBUG_VALUE: main:argc <- %EDI
	##DEBUG_VALUE: main:argc2 <- 0
	##DEBUG_VALUE: main:i <- 1
	##DEBUG_VALUE: main:isBackground <- 1
	##DEBUG_VALUE: main:built_in_command <- 0
	##DEBUG_VALUE: main:status <- 0
	##DEBUG_VALUE: main:max <- 80
	##DEBUG_VALUE: main:pos <- 0
	##DEBUG_VALUE: main:len <- 1
	##DEBUG_VALUE: main:breakloop <- 0
	##DEBUG_VALUE: main:pid_temp <- 0
	##DEBUG_VALUE: main:ret <- 1
	##DEBUG_VALUE: exec_arguments:cmdn <- 1
	##DEBUG_VALUE: exec_arguments:argn <- 0
	.loc	1 88 5                  ## c_posix.c:88:5
	leaq	L___func__.exec_pipeline(%rip), %rdi
Ltmp259:
	leaq	L_.str.41(%rip), %rsi
	leaq	L_.str.52(%rip), %rcx
	movl	$88, %edx
	callq	___assert_rtn
Ltmp260:
LBB0_39:
	##DEBUG_VALUE: main:argc <- %EDI
	##DEBUG_VALUE: main:argc2 <- 0
	##DEBUG_VALUE: main:i <- 0
	##DEBUG_VALUE: main:isBackground <- 0
	##DEBUG_VALUE: main:built_in_command <- 1
	##DEBUG_VALUE: main:status <- 0
	##DEBUG_VALUE: main:max <- 80
	##DEBUG_VALUE: main:pos <- 0
	##DEBUG_VALUE: main:len <- 1
	##DEBUG_VALUE: main:breakloop <- 0
	##DEBUG_VALUE: main:pid_temp <- 0
	##DEBUG_VALUE: main:ret <- 1
	leaq	-2336(%rbp), %rbx
	.loc	1 529 34                ## c_posix.c:529:34
Ltmp261:
	leaq	L_.str.18(%rip), %rax
Ltmp262:
LBB0_41:
	.loc	1 534 30                ## c_posix.c:534:30
	movq	%rax, -2336(%rbp)
Ltmp263:
	##DEBUG_VALUE: main:argc <- %EDI
	##DEBUG_VALUE: main:argc2 <- 0
	##DEBUG_VALUE: main:i <- 0
	##DEBUG_VALUE: main:isBackground <- 0
	##DEBUG_VALUE: main:built_in_command <- 1
	##DEBUG_VALUE: main:status <- 0
	##DEBUG_VALUE: main:max <- 80
	##DEBUG_VALUE: main:pos <- 0
	##DEBUG_VALUE: main:len <- 1
	##DEBUG_VALUE: main:breakloop <- 0
	##DEBUG_VALUE: main:pid_temp <- 0
	##DEBUG_VALUE: main:ret <- 1
	##DEBUG_VALUE: main:k <- 1
	.loc	1 550 31                ## c_posix.c:550:31
	movl	$1, %edi
Ltmp264:
	callq	_malloc
Ltmp265:
	##DEBUG_VALUE: main:tmp <- %RAX
	.loc	1 551 24                ## c_posix.c:551:24
	movb	$0, (%rax)
	.loc	1 556 25                ## c_posix.c:556:25
	leaq	L_.str.23(%rip), %rcx
	movd	%rcx, %xmm0
	leaq	L_.str.22(%rip), %rcx
	movd	%rcx, %xmm1
	punpcklqdq	%xmm0, %xmm1    ## xmm1 = xmm1[0],xmm0[0]
	movdqa	%xmm1, -2368(%rbp)
	.loc	1 558 25                ## c_posix.c:558:25
	movq	%rax, -2352(%rbp)
	.loc	1 559 25                ## c_posix.c:559:25
	movq	$0, -2344(%rbp)
	leaq	-2304(%rbp), %rax
Ltmp266:
	.loc	1 560 30                ## c_posix.c:560:30
	movq	%rax, -2400(%rbp)
	leaq	-2368(%rbp), %rax
	.loc	1 561 30                ## c_posix.c:561:30
	movq	%rax, -2392(%rbp)
	leaq	-2320(%rbp), %rax
	.loc	1 562 30                ## c_posix.c:562:30
	movq	%rax, -2384(%rbp)
	.loc	1 563 30                ## c_posix.c:563:30
	movq	%rbx, -2376(%rbp)
Ltmp267:
	##DEBUG_VALUE: fork_pipes:i <- 0
	##DEBUG_VALUE: fork_pipes:in <- 0
	##DEBUG_VALUE: fork_pipes:n <- 4
	leaq	-192(%rbp), %rdi
	.loc	1 277 13                ## c_posix.c:277:13
Ltmp268:
	callq	_pipe
Ltmp269:
	.loc	1 277 13 is_stmt 0      ## c_posix.c:277:13
	cmpl	$-1, %eax
	je	LBB0_119
## BB#42:
Ltmp270:
	##DEBUG_VALUE: main:argc <- %EDI
	##DEBUG_VALUE: main:argc2 <- 0
	##DEBUG_VALUE: main:i <- 0
	##DEBUG_VALUE: main:isBackground <- 0
	##DEBUG_VALUE: main:built_in_command <- 1
	##DEBUG_VALUE: main:status <- 0
	##DEBUG_VALUE: main:max <- 80
	##DEBUG_VALUE: main:pos <- 0
	##DEBUG_VALUE: main:len <- 1
	##DEBUG_VALUE: main:breakloop <- 0
	##DEBUG_VALUE: main:pid_temp <- 0
	##DEBUG_VALUE: main:ret <- 1
	##DEBUG_VALUE: main:k <- 1
	##DEBUG_VALUE: fork_pipes:n <- 4
	##DEBUG_VALUE: fork_pipes:in <- 0
	##DEBUG_VALUE: fork_pipes:i <- 0
	.loc	1 282 24 is_stmt 1      ## c_posix.c:282:24
	movl	-188(%rbp), %r14d
	.loc	1 243 16                ## c_posix.c:243:16
Ltmp271:
	callq	_fork
Ltmp272:
	##DEBUG_VALUE: spawn_proc:pid <- %EAX
	.loc	1 243 24 is_stmt 0      ## c_posix.c:243:24
	testl	%eax, %eax
	jne	LBB0_52
Ltmp273:
## BB#43:
	##DEBUG_VALUE: main:argc <- %EDI
	##DEBUG_VALUE: main:argc2 <- 0
	##DEBUG_VALUE: main:i <- 0
	##DEBUG_VALUE: main:isBackground <- 0
	##DEBUG_VALUE: main:built_in_command <- 1
	##DEBUG_VALUE: main:status <- 0
	##DEBUG_VALUE: main:max <- 80
	##DEBUG_VALUE: main:pos <- 0
	##DEBUG_VALUE: main:len <- 1
	##DEBUG_VALUE: main:breakloop <- 0
	##DEBUG_VALUE: main:pid_temp <- 0
	##DEBUG_VALUE: main:ret <- 1
	##DEBUG_VALUE: main:k <- 1
	leaq	-2400(%rbp), %r12
Ltmp274:
LBB0_48:                                ## %.thread.i
	##DEBUG_VALUE: main:argc <- %EDI
	##DEBUG_VALUE: main:argc2 <- 0
	##DEBUG_VALUE: main:i <- 0
	##DEBUG_VALUE: main:isBackground <- 0
	##DEBUG_VALUE: main:built_in_command <- 1
	##DEBUG_VALUE: main:status <- 0
	##DEBUG_VALUE: main:max <- 80
	##DEBUG_VALUE: main:pos <- 0
	##DEBUG_VALUE: main:len <- 1
	##DEBUG_VALUE: main:breakloop <- 0
	##DEBUG_VALUE: main:pid_temp <- 0
	##DEBUG_VALUE: main:ret <- 1
	##DEBUG_VALUE: main:k <- 1
	##DEBUG_VALUE: fork_pipes:n <- 4
	##DEBUG_VALUE: fork_pipes:in <- 0
	##DEBUG_VALUE: fork_pipes:i <- 0
	.loc	1 251 17 is_stmt 1      ## c_posix.c:251:17
	cmpl	$1, %r14d
	je	LBB0_51
Ltmp275:
## BB#49:
	##DEBUG_VALUE: main:argc <- %EDI
	##DEBUG_VALUE: main:argc2 <- 0
	##DEBUG_VALUE: main:i <- 0
	##DEBUG_VALUE: main:isBackground <- 0
	##DEBUG_VALUE: main:built_in_command <- 1
	##DEBUG_VALUE: main:status <- 0
	##DEBUG_VALUE: main:max <- 80
	##DEBUG_VALUE: main:pos <- 0
	##DEBUG_VALUE: main:len <- 1
	##DEBUG_VALUE: main:breakloop <- 0
	##DEBUG_VALUE: main:pid_temp <- 0
	##DEBUG_VALUE: main:ret <- 1
	##DEBUG_VALUE: main:k <- 1
	##DEBUG_VALUE: fork_pipes:n <- 4
	##DEBUG_VALUE: fork_pipes:in <- 0
	##DEBUG_VALUE: fork_pipes:i <- 0
	.loc	1 253 17                ## c_posix.c:253:17
	movl	$1, %esi
	movl	%r14d, %edi
Ltmp276:
	callq	_dup2
Ltmp277:
	.loc	1 253 17 is_stmt 0      ## c_posix.c:253:17
	testl	%eax, %eax
	jns	LBB0_50
## BB#120:
Ltmp278:
	##DEBUG_VALUE: main:argc <- %EDI
	##DEBUG_VALUE: main:argc2 <- 0
	##DEBUG_VALUE: main:i <- 0
	##DEBUG_VALUE: main:isBackground <- 0
	##DEBUG_VALUE: main:built_in_command <- 1
	##DEBUG_VALUE: main:status <- 0
	##DEBUG_VALUE: main:max <- 80
	##DEBUG_VALUE: main:pos <- 0
	##DEBUG_VALUE: main:len <- 1
	##DEBUG_VALUE: main:breakloop <- 0
	##DEBUG_VALUE: main:pid_temp <- 0
	##DEBUG_VALUE: main:ret <- 1
	##DEBUG_VALUE: main:k <- 1
	##DEBUG_VALUE: fork_pipes:n <- 4
	##DEBUG_VALUE: fork_pipes:in <- 0
	##DEBUG_VALUE: fork_pipes:i <- 0
	.loc	1 254 69 is_stmt 1      ## c_posix.c:254:69
	movq	(%r12), %rax
	.loc	1 254 64 is_stmt 0      ## c_posix.c:254:64
	movq	(%rax), %rsi
	.loc	1 254 17                ## c_posix.c:254:17
	leaq	L_.str.34(%rip), %rdi
Ltmp279:
	xorl	%eax, %eax
	callq	_err_syserr
Ltmp280:
LBB0_52:
	##DEBUG_VALUE: main:argc <- %EDI
	##DEBUG_VALUE: main:argc2 <- 0
	##DEBUG_VALUE: main:i <- 0
	##DEBUG_VALUE: main:isBackground <- 0
	##DEBUG_VALUE: main:built_in_command <- 1
	##DEBUG_VALUE: main:status <- 0
	##DEBUG_VALUE: main:max <- 80
	##DEBUG_VALUE: main:pos <- 0
	##DEBUG_VALUE: main:len <- 1
	##DEBUG_VALUE: main:breakloop <- 0
	##DEBUG_VALUE: main:pid_temp <- 0
	##DEBUG_VALUE: main:ret <- 1
	##DEBUG_VALUE: main:k <- 1
	##DEBUG_VALUE: fork_pipes:n <- 4
	##DEBUG_VALUE: fork_pipes:in <- 0
	##DEBUG_VALUE: fork_pipes:i <- 0
	js	LBB0_121
Ltmp281:
## BB#53:                               ## %spawn_proc.exit.i
	##DEBUG_VALUE: main:argc <- %EDI
	##DEBUG_VALUE: main:argc2 <- 0
	##DEBUG_VALUE: main:i <- 0
	##DEBUG_VALUE: main:isBackground <- 0
	##DEBUG_VALUE: main:built_in_command <- 1
	##DEBUG_VALUE: main:status <- 0
	##DEBUG_VALUE: main:max <- 80
	##DEBUG_VALUE: main:pos <- 0
	##DEBUG_VALUE: main:len <- 1
	##DEBUG_VALUE: main:breakloop <- 0
	##DEBUG_VALUE: main:pid_temp <- 0
	##DEBUG_VALUE: main:ret <- 1
	##DEBUG_VALUE: main:k <- 1
	##DEBUG_VALUE: fork_pipes:n <- 4
	##DEBUG_VALUE: fork_pipes:in <- 0
	##DEBUG_VALUE: fork_pipes:i <- 0
	.loc	1 283 15 is_stmt 1      ## c_posix.c:283:15
	movl	-188(%rbp), %edi
Ltmp282:
	.loc	1 283 9 is_stmt 0       ## c_posix.c:283:9
	callq	_close
	.loc	1 284 14 is_stmt 1      ## c_posix.c:284:14
	movl	-192(%rbp), %r15d
Ltmp283:
	##DEBUG_VALUE: fork_pipes:i <- 1
	##DEBUG_VALUE: fork_pipes:in <- %R15D
	leaq	-192(%rbp), %rdi
	.loc	1 277 13                ## c_posix.c:277:13
Ltmp284:
	callq	_pipe
	.loc	1 277 22 is_stmt 0      ## c_posix.c:277:22
	cmpl	$-1, %eax
	je	LBB0_119
Ltmp285:
## BB#54:
	##DEBUG_VALUE: main:argc <- %EDI
	##DEBUG_VALUE: main:argc2 <- 0
	##DEBUG_VALUE: main:i <- 0
	##DEBUG_VALUE: main:isBackground <- 0
	##DEBUG_VALUE: main:built_in_command <- 1
	##DEBUG_VALUE: main:status <- 0
	##DEBUG_VALUE: main:max <- 80
	##DEBUG_VALUE: main:pos <- 0
	##DEBUG_VALUE: main:len <- 1
	##DEBUG_VALUE: main:breakloop <- 0
	##DEBUG_VALUE: main:pid_temp <- 0
	##DEBUG_VALUE: main:ret <- 1
	##DEBUG_VALUE: main:k <- 1
	##DEBUG_VALUE: fork_pipes:n <- 4
	##DEBUG_VALUE: fork_pipes:in <- %R15D
	##DEBUG_VALUE: fork_pipes:i <- 1
	.loc	1 282 24 is_stmt 1      ## c_posix.c:282:24
	movl	-188(%rbp), %r14d
	.loc	1 243 16                ## c_posix.c:243:16
Ltmp286:
	callq	_fork
	movl	$1, %ecx
	.loc	1 243 24 is_stmt 0      ## c_posix.c:243:24
	testl	%eax, %eax
	je	LBB0_44
Ltmp287:
## BB#55:
	##DEBUG_VALUE: main:argc <- %EDI
	##DEBUG_VALUE: main:argc2 <- 0
	##DEBUG_VALUE: main:i <- 0
	##DEBUG_VALUE: main:isBackground <- 0
	##DEBUG_VALUE: main:built_in_command <- 1
	##DEBUG_VALUE: main:status <- 0
	##DEBUG_VALUE: main:max <- 80
	##DEBUG_VALUE: main:pos <- 0
	##DEBUG_VALUE: main:len <- 1
	##DEBUG_VALUE: main:breakloop <- 0
	##DEBUG_VALUE: main:pid_temp <- 0
	##DEBUG_VALUE: main:ret <- 1
	##DEBUG_VALUE: main:k <- 1
	##DEBUG_VALUE: fork_pipes:n <- 4
	##DEBUG_VALUE: fork_pipes:i <- 1
	js	LBB0_121
Ltmp288:
## BB#56:                               ## %spawn_proc.exit.1.i
	##DEBUG_VALUE: main:argc <- %EDI
	##DEBUG_VALUE: main:argc2 <- 0
	##DEBUG_VALUE: main:i <- 0
	##DEBUG_VALUE: main:isBackground <- 0
	##DEBUG_VALUE: main:built_in_command <- 1
	##DEBUG_VALUE: main:status <- 0
	##DEBUG_VALUE: main:max <- 80
	##DEBUG_VALUE: main:pos <- 0
	##DEBUG_VALUE: main:len <- 1
	##DEBUG_VALUE: main:breakloop <- 0
	##DEBUG_VALUE: main:pid_temp <- 0
	##DEBUG_VALUE: main:ret <- 1
	##DEBUG_VALUE: main:k <- 1
	##DEBUG_VALUE: fork_pipes:n <- 4
	##DEBUG_VALUE: fork_pipes:i <- 1
	.loc	1 283 15 is_stmt 1      ## c_posix.c:283:15
	movl	-188(%rbp), %edi
Ltmp289:
	.loc	1 283 9 is_stmt 0       ## c_posix.c:283:9
	callq	_close
	.loc	1 284 14 is_stmt 1      ## c_posix.c:284:14
	movl	-192(%rbp), %r15d
	leaq	-192(%rbp), %rdi
	.loc	1 277 13                ## c_posix.c:277:13
Ltmp290:
	callq	_pipe
	.loc	1 277 22 is_stmt 0      ## c_posix.c:277:22
	cmpl	$-1, %eax
	jne	LBB0_57
LBB0_119:
Ltmp291:
	##DEBUG_VALUE: main:argc <- %EDI
	##DEBUG_VALUE: main:argc2 <- 0
	##DEBUG_VALUE: main:i <- 0
	##DEBUG_VALUE: main:isBackground <- 0
	##DEBUG_VALUE: main:built_in_command <- 1
	##DEBUG_VALUE: main:status <- 0
	##DEBUG_VALUE: main:max <- 80
	##DEBUG_VALUE: main:pos <- 0
	##DEBUG_VALUE: main:len <- 1
	##DEBUG_VALUE: main:breakloop <- 0
	##DEBUG_VALUE: main:pid_temp <- 0
	##DEBUG_VALUE: main:ret <- 1
	##DEBUG_VALUE: main:k <- 1
	##DEBUG_VALUE: fork_pipes:n <- 4
	##DEBUG_VALUE: fork_pipes:in <- 0
	##DEBUG_VALUE: fork_pipes:i <- 0
	.loc	1 279 13 is_stmt 1      ## c_posix.c:279:13
	leaq	L_.str.29(%rip), %rdi
Ltmp292:
	xorl	%eax, %eax
	callq	_err_syserr
Ltmp293:
LBB0_50:
	##DEBUG_VALUE: main:argc <- %EDI
	##DEBUG_VALUE: main:argc2 <- 0
	##DEBUG_VALUE: main:i <- 0
	##DEBUG_VALUE: main:isBackground <- 0
	##DEBUG_VALUE: main:built_in_command <- 1
	##DEBUG_VALUE: main:status <- 0
	##DEBUG_VALUE: main:max <- 80
	##DEBUG_VALUE: main:pos <- 0
	##DEBUG_VALUE: main:len <- 1
	##DEBUG_VALUE: main:breakloop <- 0
	##DEBUG_VALUE: main:pid_temp <- 0
	##DEBUG_VALUE: main:ret <- 1
	##DEBUG_VALUE: main:k <- 1
	##DEBUG_VALUE: fork_pipes:n <- 4
	##DEBUG_VALUE: fork_pipes:in <- 0
	##DEBUG_VALUE: fork_pipes:i <- 0
	.loc	1 255 13                ## c_posix.c:255:13
	movl	%r14d, %edi
Ltmp294:
	callq	_close
Ltmp295:
LBB0_51:
	##DEBUG_VALUE: main:argc <- %EDI
	##DEBUG_VALUE: main:argc2 <- 0
	##DEBUG_VALUE: main:i <- 0
	##DEBUG_VALUE: main:isBackground <- 0
	##DEBUG_VALUE: main:built_in_command <- 1
	##DEBUG_VALUE: main:status <- 0
	##DEBUG_VALUE: main:max <- 80
	##DEBUG_VALUE: main:pos <- 0
	##DEBUG_VALUE: main:len <- 1
	##DEBUG_VALUE: main:breakloop <- 0
	##DEBUG_VALUE: main:pid_temp <- 0
	##DEBUG_VALUE: main:ret <- 1
	##DEBUG_VALUE: main:k <- 1
	##DEBUG_VALUE: fork_pipes:n <- 4
	##DEBUG_VALUE: fork_pipes:in <- 0
	##DEBUG_VALUE: fork_pipes:i <- 0
	.loc	1 257 17                ## c_posix.c:257:17
	movq	(%r13), %rbx
	.loc	1 257 52 is_stmt 0      ## c_posix.c:257:52
	callq	_getpid
	movl	%eax, %edx
	.loc	1 257 67                ## c_posix.c:257:67
	movq	(%r12), %rax
	.loc	1 257 62                ## c_posix.c:257:62
	movq	(%rax), %rcx
	.loc	1 257 9                 ## c_posix.c:257:9
	leaq	L_.str.31(%rip), %rsi
	xorl	%eax, %eax
	movq	%rbx, %rdi
Ltmp296:
	callq	_fprintf
	.loc	1 258 21 is_stmt 1      ## c_posix.c:258:21
	movq	(%r12), %rsi
	.loc	1 258 16 is_stmt 0      ## c_posix.c:258:16
	movq	(%rsi), %rdi
	.loc	1 258 9                 ## c_posix.c:258:9
	callq	_execvp
	.loc	1 259 51 is_stmt 1      ## c_posix.c:259:51
	movq	(%r12), %rax
	.loc	1 259 46 is_stmt 0      ## c_posix.c:259:46
	movq	(%rax), %rsi
Ltmp297:
LBB0_63:
	.loc	1 292 5 is_stmt 1       ## c_posix.c:292:5
	leaq	L_.str.32(%rip), %rdi
	xorl	%eax, %eax
	callq	_err_syserr
LBB0_57:
Ltmp298:
	##DEBUG_VALUE: main:argc <- %EDI
	##DEBUG_VALUE: main:argc2 <- 0
	##DEBUG_VALUE: main:i <- 0
	##DEBUG_VALUE: main:isBackground <- 0
	##DEBUG_VALUE: main:built_in_command <- 1
	##DEBUG_VALUE: main:status <- 0
	##DEBUG_VALUE: main:max <- 80
	##DEBUG_VALUE: main:pos <- 0
	##DEBUG_VALUE: main:len <- 1
	##DEBUG_VALUE: main:breakloop <- 0
	##DEBUG_VALUE: main:pid_temp <- 0
	##DEBUG_VALUE: main:ret <- 1
	##DEBUG_VALUE: main:k <- 1
	##DEBUG_VALUE: fork_pipes:n <- 4
	##DEBUG_VALUE: fork_pipes:i <- 1
	.loc	1 282 24                ## c_posix.c:282:24
	movl	-188(%rbp), %r14d
	.loc	1 243 16                ## c_posix.c:243:16
Ltmp299:
	callq	_fork
	movl	$2, %ecx
	.loc	1 243 24 is_stmt 0      ## c_posix.c:243:24
	testl	%eax, %eax
	jne	LBB0_58
Ltmp300:
LBB0_44:
	##DEBUG_VALUE: main:argc <- %EDI
	##DEBUG_VALUE: main:argc2 <- 0
	##DEBUG_VALUE: main:i <- 0
	##DEBUG_VALUE: main:isBackground <- 0
	##DEBUG_VALUE: main:built_in_command <- 1
	##DEBUG_VALUE: main:status <- 0
	##DEBUG_VALUE: main:max <- 80
	##DEBUG_VALUE: main:pos <- 0
	##DEBUG_VALUE: main:len <- 1
	##DEBUG_VALUE: main:breakloop <- 0
	##DEBUG_VALUE: main:pid_temp <- 0
	##DEBUG_VALUE: main:ret <- 1
	##DEBUG_VALUE: main:k <- 1
	##DEBUG_VALUE: fork_pipes:n <- 4
	##DEBUG_VALUE: fork_pipes:i <- 1
	.loc	1 282 35 is_stmt 1      ## c_posix.c:282:35
	leaq	-2400(%rbp,%rcx,8), %r12
	.loc	1 245 16                ## c_posix.c:245:16
Ltmp301:
	testl	%r15d, %r15d
	je	LBB0_48
Ltmp302:
## BB#45:
	##DEBUG_VALUE: main:argc <- %EDI
	##DEBUG_VALUE: main:argc2 <- 0
	##DEBUG_VALUE: main:i <- 0
	##DEBUG_VALUE: main:isBackground <- 0
	##DEBUG_VALUE: main:built_in_command <- 1
	##DEBUG_VALUE: main:status <- 0
	##DEBUG_VALUE: main:max <- 80
	##DEBUG_VALUE: main:pos <- 0
	##DEBUG_VALUE: main:len <- 1
	##DEBUG_VALUE: main:breakloop <- 0
	##DEBUG_VALUE: main:pid_temp <- 0
	##DEBUG_VALUE: main:ret <- 1
	##DEBUG_VALUE: main:k <- 1
	##DEBUG_VALUE: fork_pipes:n <- 4
	##DEBUG_VALUE: fork_pipes:i <- 1
	xorl	%esi, %esi
	.loc	1 247 17                ## c_posix.c:247:17
Ltmp303:
	movl	%r15d, %edi
Ltmp304:
	callq	_dup2
Ltmp305:
	.loc	1 247 17 is_stmt 0      ## c_posix.c:247:17
	testl	%eax, %eax
	jns	LBB0_47
## BB#46:
Ltmp306:
	##DEBUG_VALUE: main:argc <- %EDI
	##DEBUG_VALUE: main:argc2 <- 0
	##DEBUG_VALUE: main:i <- 0
	##DEBUG_VALUE: main:isBackground <- 0
	##DEBUG_VALUE: main:built_in_command <- 1
	##DEBUG_VALUE: main:status <- 0
	##DEBUG_VALUE: main:max <- 80
	##DEBUG_VALUE: main:pos <- 0
	##DEBUG_VALUE: main:len <- 1
	##DEBUG_VALUE: main:breakloop <- 0
	##DEBUG_VALUE: main:pid_temp <- 0
	##DEBUG_VALUE: main:ret <- 1
	##DEBUG_VALUE: main:k <- 1
	##DEBUG_VALUE: fork_pipes:n <- 4
	##DEBUG_VALUE: fork_pipes:i <- 1
	.loc	1 248 68 is_stmt 1      ## c_posix.c:248:68
	movq	(%r12), %rax
	.loc	1 248 63 is_stmt 0      ## c_posix.c:248:63
	movq	(%rax), %rsi
Ltmp307:
LBB0_61:
	.loc	1 288 9 is_stmt 1       ## c_posix.c:288:9
	leaq	L_.str.30(%rip), %rdi
	xorl	%eax, %eax
	callq	_err_syserr
Ltmp308:
LBB0_47:
	##DEBUG_VALUE: main:argc <- %EDI
	##DEBUG_VALUE: main:argc2 <- 0
	##DEBUG_VALUE: main:i <- 0
	##DEBUG_VALUE: main:isBackground <- 0
	##DEBUG_VALUE: main:built_in_command <- 1
	##DEBUG_VALUE: main:status <- 0
	##DEBUG_VALUE: main:max <- 80
	##DEBUG_VALUE: main:pos <- 0
	##DEBUG_VALUE: main:len <- 1
	##DEBUG_VALUE: main:breakloop <- 0
	##DEBUG_VALUE: main:pid_temp <- 0
	##DEBUG_VALUE: main:ret <- 1
	##DEBUG_VALUE: main:k <- 1
	##DEBUG_VALUE: fork_pipes:n <- 4
	##DEBUG_VALUE: fork_pipes:i <- 1
	.loc	1 249 13                ## c_posix.c:249:13
	movl	%r15d, %edi
Ltmp309:
	callq	_close
	jmp	LBB0_48
Ltmp310:
LBB0_58:
	##DEBUG_VALUE: main:argc <- %EDI
	##DEBUG_VALUE: main:argc2 <- 0
	##DEBUG_VALUE: main:i <- 0
	##DEBUG_VALUE: main:isBackground <- 0
	##DEBUG_VALUE: main:built_in_command <- 1
	##DEBUG_VALUE: main:status <- 0
	##DEBUG_VALUE: main:max <- 80
	##DEBUG_VALUE: main:pos <- 0
	##DEBUG_VALUE: main:len <- 1
	##DEBUG_VALUE: main:breakloop <- 0
	##DEBUG_VALUE: main:pid_temp <- 0
	##DEBUG_VALUE: main:ret <- 1
	##DEBUG_VALUE: main:k <- 1
	##DEBUG_VALUE: fork_pipes:n <- 4
	##DEBUG_VALUE: fork_pipes:i <- 1
	jns	LBB0_59
Ltmp311:
LBB0_121:
	##DEBUG_VALUE: main:argc <- %EDI
	##DEBUG_VALUE: main:argc2 <- 0
	##DEBUG_VALUE: main:i <- 0
	##DEBUG_VALUE: main:isBackground <- 0
	##DEBUG_VALUE: main:built_in_command <- 1
	##DEBUG_VALUE: main:status <- 0
	##DEBUG_VALUE: main:max <- 80
	##DEBUG_VALUE: main:pos <- 0
	##DEBUG_VALUE: main:len <- 1
	##DEBUG_VALUE: main:breakloop <- 0
	##DEBUG_VALUE: main:pid_temp <- 0
	##DEBUG_VALUE: main:ret <- 1
	##DEBUG_VALUE: main:k <- 1
	##DEBUG_VALUE: fork_pipes:n <- 4
	##DEBUG_VALUE: fork_pipes:in <- 0
	##DEBUG_VALUE: fork_pipes:i <- 0
	.loc	1 263 9                 ## c_posix.c:263:9
	leaq	L_.str.35(%rip), %rdi
Ltmp312:
	xorl	%eax, %eax
	callq	_err_syserr
Ltmp313:
LBB0_59:                                ## %spawn_proc.exit.2.i
	##DEBUG_VALUE: main:argc <- %EDI
	##DEBUG_VALUE: main:argc2 <- 0
	##DEBUG_VALUE: main:i <- 0
	##DEBUG_VALUE: main:isBackground <- 0
	##DEBUG_VALUE: main:built_in_command <- 1
	##DEBUG_VALUE: main:status <- 0
	##DEBUG_VALUE: main:max <- 80
	##DEBUG_VALUE: main:pos <- 0
	##DEBUG_VALUE: main:len <- 1
	##DEBUG_VALUE: main:breakloop <- 0
	##DEBUG_VALUE: main:pid_temp <- 0
	##DEBUG_VALUE: main:ret <- 1
	##DEBUG_VALUE: main:k <- 1
	##DEBUG_VALUE: fork_pipes:n <- 4
	##DEBUG_VALUE: fork_pipes:i <- 1
	.loc	1 283 15                ## c_posix.c:283:15
	movl	-188(%rbp), %edi
Ltmp314:
	.loc	1 283 9 is_stmt 0       ## c_posix.c:283:9
	callq	_close
	.loc	1 284 14 is_stmt 1      ## c_posix.c:284:14
	movl	-192(%rbp), %edi
	xorl	%esi, %esi
Ltmp315:
	.loc	1 286 9                 ## c_posix.c:286:9
	callq	_dup2
	.loc	1 286 21 is_stmt 0      ## c_posix.c:286:21
	testl	%eax, %eax
Ltmp316:
	.loc	1 286 9                 ## c_posix.c:286:9
	jns	LBB0_62
## BB#60:
Ltmp317:
	##DEBUG_VALUE: main:argc <- %EDI
	##DEBUG_VALUE: main:argc2 <- 0
	##DEBUG_VALUE: main:i <- 0
	##DEBUG_VALUE: main:isBackground <- 0
	##DEBUG_VALUE: main:built_in_command <- 1
	##DEBUG_VALUE: main:status <- 0
	##DEBUG_VALUE: main:max <- 80
	##DEBUG_VALUE: main:pos <- 0
	##DEBUG_VALUE: main:len <- 1
	##DEBUG_VALUE: main:breakloop <- 0
	##DEBUG_VALUE: main:pid_temp <- 0
	##DEBUG_VALUE: main:ret <- 1
	##DEBUG_VALUE: main:k <- 1
	##DEBUG_VALUE: fork_pipes:n <- 4
	##DEBUG_VALUE: fork_pipes:i <- 1
	.loc	1 288 55 is_stmt 1      ## c_posix.c:288:55
	movq	-2336(%rbp), %rsi
	jmp	LBB0_61
Ltmp318:
LBB0_62:
	##DEBUG_VALUE: main:argc <- %EDI
	##DEBUG_VALUE: main:argc2 <- 0
	##DEBUG_VALUE: main:i <- 0
	##DEBUG_VALUE: main:isBackground <- 0
	##DEBUG_VALUE: main:built_in_command <- 1
	##DEBUG_VALUE: main:status <- 0
	##DEBUG_VALUE: main:max <- 80
	##DEBUG_VALUE: main:pos <- 0
	##DEBUG_VALUE: main:len <- 1
	##DEBUG_VALUE: main:breakloop <- 0
	##DEBUG_VALUE: main:pid_temp <- 0
	##DEBUG_VALUE: main:ret <- 1
	##DEBUG_VALUE: main:k <- 1
	##DEBUG_VALUE: fork_pipes:n <- 4
	##DEBUG_VALUE: fork_pipes:i <- 1
	.loc	1 290 13                ## c_posix.c:290:13
	movq	(%r13), %r14
	.loc	1 290 48 is_stmt 0      ## c_posix.c:290:48
	callq	_getpid
	movl	%eax, %edx
	.loc	1 290 58                ## c_posix.c:290:58
	movq	-2336(%rbp), %rcx
	.loc	1 290 5                 ## c_posix.c:290:5
	leaq	L_.str.31(%rip), %rsi
	xorl	%eax, %eax
	movq	%r14, %rdi
Ltmp319:
	callq	_fprintf
	.loc	1 291 12 is_stmt 1      ## c_posix.c:291:12
	movq	-2336(%rbp), %rdi
	.loc	1 291 5 is_stmt 0       ## c_posix.c:291:5
	movq	%rbx, %rsi
	callq	_execvp
	.loc	1 292 42 is_stmt 1      ## c_posix.c:292:42
	movq	-2336(%rbp), %rsi
	jmp	LBB0_63
Ltmp320:
Lfunc_end0:
	.cfi_endproc
	.file	5 "/usr/include/sys/_types" "_dev_t.h"
	.file	6 "/usr/include/sys" "stat.h"
	.file	7 "/usr/include/sys/_types" "_mode_t.h"
	.file	8 "/usr/include/sys/_types" "_nlink_t.h"
	.file	9 "/usr/include/sys/_types" "_uid_t.h"
	.file	10 "/usr/include/sys/_types" "_gid_t.h"
	.file	11 "/usr/include/sys/_types" "_time_t.h"
	.file	12 "/usr/include/sys/_types" "_off_t.h"
	.file	13 "/usr/include/sys/_types" "_blkcnt_t.h"
	.file	14 "/usr/include/sys/_types" "_blksize_t.h"

	.align	4, 0x90
_sighandler:                            ## @sighandler
Lfunc_begin1:
	.loc	1 359 0                 ## c_posix.c:359:0
	.cfi_startproc
## BB#0:
	pushq	%rbp
Ltmp321:
	.cfi_def_cfa_offset 16
Ltmp322:
	.cfi_offset %rbp, -16
	movq	%rsp, %rbp
Ltmp323:
	.cfi_def_cfa_register %rbp
	##DEBUG_VALUE: sighandler:signo <- %EDI
	##DEBUG_VALUE: sighandler:si <- %RSI
	##DEBUG_VALUE: sighandler:vp <- %RDX
	.loc	1 361 20 prologue_end   ## c_posix.c:361:20
Ltmp324:
	leaq	L_.str.27(%rip), %rsi
	movl	$2, %edi
	movl	$16, %edx
	popq	%rbp
	jmp	_write                  ## TAILCALL
Ltmp325:
Lfunc_end1:
	.cfi_endproc

	.align	4, 0x90
_err_syserr:                            ## @err_syserr
Lfunc_begin2:
	.loc	1 220 0                 ## c_posix.c:220:0
	.cfi_startproc
## BB#0:
	pushq	%rbp
Ltmp326:
	.cfi_def_cfa_offset 16
Ltmp327:
	.cfi_offset %rbp, -16
	movq	%rsp, %rbp
Ltmp328:
	.cfi_def_cfa_register %rbp
	pushq	%r15
	pushq	%r14
	pushq	%rbx
	subq	$200, %rsp
Ltmp329:
	.cfi_offset %rbx, -40
Ltmp330:
	.cfi_offset %r14, -32
Ltmp331:
	.cfi_offset %r15, -24
	##DEBUG_VALUE: err_syserr:fmt <- %RDI
	movq	%rdi, %r14
Ltmp332:
	##DEBUG_VALUE: err_syserr:fmt <- %R14
	testb	%al, %al
	je	LBB2_2
Ltmp333:
## BB#1:
	##DEBUG_VALUE: err_syserr:fmt <- %R14
	movaps	%xmm0, -176(%rbp)
	movaps	%xmm1, -160(%rbp)
	movaps	%xmm2, -144(%rbp)
	movaps	%xmm3, -128(%rbp)
	movaps	%xmm4, -112(%rbp)
	movaps	%xmm5, -96(%rbp)
	movaps	%xmm6, -80(%rbp)
	movaps	%xmm7, -64(%rbp)
Ltmp334:
LBB2_2:
	##DEBUG_VALUE: err_syserr:fmt <- %R14
	movq	%r9, -184(%rbp)
	movq	%r8, -192(%rbp)
	movq	%rcx, -200(%rbp)
	movq	%rdx, -208(%rbp)
	movq	%rsi, -216(%rbp)
	.loc	1 221 18 prologue_end   ## c_posix.c:221:18
Ltmp335:
	callq	___error
	movl	(%rax), %ebx
Ltmp336:
	##DEBUG_VALUE: err_syserr:errnum <- %EBX
	leaq	-224(%rbp), %rax
	.loc	1 223 5                 ## c_posix.c:223:5
	movq	%rax, -32(%rbp)
	leaq	16(%rbp), %rax
	movq	%rax, -40(%rbp)
	movl	$48, -44(%rbp)
	movl	$8, -48(%rbp)
	.loc	1 224 14                ## c_posix.c:224:14
	movq	___stderrp@GOTPCREL(%rip), %r15
	movq	(%r15), %rdi
	leaq	-48(%rbp), %rdx
Ltmp337:
	##DEBUG_VALUE: err_syserr:args <- [%RDX+0]
	.loc	1 224 5 is_stmt 0       ## c_posix.c:224:5
	movq	%r14, %rsi
Ltmp338:
	##DEBUG_VALUE: err_syserr:fmt <- %RSI
	callq	_vfprintf
	.loc	1 226 16 is_stmt 1      ## c_posix.c:226:16
Ltmp339:
	testl	%ebx, %ebx
	je	LBB2_4
Ltmp340:
## BB#3:
	##DEBUG_VALUE: err_syserr:errnum <- %EBX
	.loc	1 227 17                ## c_posix.c:227:17
	movq	(%r15), %r14
	.loc	1 227 47 is_stmt 0      ## c_posix.c:227:47
	movl	%ebx, %edi
	callq	_strerror
	movq	%rax, %rcx
	.loc	1 227 9                 ## c_posix.c:227:9
	leaq	L_.str.33(%rip), %rsi
	xorl	%eax, %eax
	movq	%r14, %rdi
	movl	%ebx, %edx
	callq	_fprintf
Ltmp341:
LBB2_4:
	.loc	1 228 5 is_stmt 1       ## c_posix.c:228:5
	movl	$1, %edi
	callq	_exit
Ltmp342:
Lfunc_end2:
	.cfi_endproc

	.align	4, 0x90
_err_sysexit:                           ## @err_sysexit
Lfunc_begin3:
	.loc	1 203 0                 ## c_posix.c:203:0
	.cfi_startproc
## BB#0:
	pushq	%rbp
Ltmp343:
	.cfi_def_cfa_offset 16
Ltmp344:
	.cfi_offset %rbp, -16
	movq	%rsp, %rbp
Ltmp345:
	.cfi_def_cfa_register %rbp
	subq	$208, %rsp
	##DEBUG_VALUE: err_sysexit:fmt <- %RDI
	testb	%al, %al
	je	LBB3_2
Ltmp346:
## BB#1:
	##DEBUG_VALUE: err_sysexit:fmt <- %RDI
	movaps	%xmm0, -160(%rbp)
	movaps	%xmm1, -144(%rbp)
	movaps	%xmm2, -128(%rbp)
	movaps	%xmm3, -112(%rbp)
	movaps	%xmm4, -96(%rbp)
	movaps	%xmm5, -80(%rbp)
	movaps	%xmm6, -64(%rbp)
	movaps	%xmm7, -48(%rbp)
Ltmp347:
LBB3_2:
	##DEBUG_VALUE: err_sysexit:fmt <- %RDI
	movq	%r9, -168(%rbp)
	movq	%r8, -176(%rbp)
	movq	%rcx, -184(%rbp)
	movq	%rdx, -192(%rbp)
	movq	%rsi, -200(%rbp)
	leaq	-208(%rbp), %rax
	.loc	1 205 5 prologue_end    ## c_posix.c:205:5
Ltmp348:
	movq	%rax, -16(%rbp)
	leaq	16(%rbp), %rax
	movq	%rax, -24(%rbp)
	movl	$48, -28(%rbp)
	movl	$8, -32(%rbp)
	leaq	-32(%rbp), %rsi
Ltmp349:
	##DEBUG_VALUE: err_sysexit:args <- [%RSI+0]
	.loc	1 206 5                 ## c_posix.c:206:5
	callq	_err_vsyswarn
	.loc	1 208 5                 ## c_posix.c:208:5
	movl	$1, %edi
Ltmp350:
	callq	_exit
Ltmp351:
Lfunc_end3:
	.cfi_endproc

	.align	4, 0x90
_err_vsyswarn:                          ## @err_vsyswarn
Lfunc_begin4:
	.loc	1 185 0                 ## c_posix.c:185:0
	.cfi_startproc
## BB#0:
	pushq	%rbp
Ltmp352:
	.cfi_def_cfa_offset 16
Ltmp353:
	.cfi_offset %rbp, -16
	movq	%rsp, %rbp
Ltmp354:
	.cfi_def_cfa_register %rbp
	pushq	%r15
	pushq	%r14
	pushq	%r13
	pushq	%r12
	pushq	%rbx
	pushq	%rax
Ltmp355:
	.cfi_offset %rbx, -56
Ltmp356:
	.cfi_offset %r12, -48
Ltmp357:
	.cfi_offset %r13, -40
Ltmp358:
	.cfi_offset %r14, -32
Ltmp359:
	.cfi_offset %r15, -24
	##DEBUG_VALUE: err_vsyswarn:fmt <- %RDI
	##DEBUG_VALUE: err_vsyswarn:args <- %RSI
	movq	%rsi, %r14
Ltmp360:
	##DEBUG_VALUE: err_vsyswarn:args <- %R14
	movq	%rdi, %r15
Ltmp361:
	##DEBUG_VALUE: err_vsyswarn:fmt <- %R15
	.loc	1 186 18 prologue_end   ## c_posix.c:186:18
	callq	___error
	movl	(%rax), %r12d
Ltmp362:
	##DEBUG_VALUE: err_vsyswarn:errnum <- %R12D
	.loc	1 187 13                ## c_posix.c:187:13
	movq	___stderrp@GOTPCREL(%rip), %rax
	movq	(%rax), %r13
	.loc	1 187 32 is_stmt 0      ## c_posix.c:187:32
	movq	_arg0(%rip), %rbx
	.loc	1 187 43                ## c_posix.c:187:43
	callq	_getpid
	movl	%eax, %ecx
	.loc	1 187 5                 ## c_posix.c:187:5
	leaq	L_.str.47(%rip), %rsi
	xorl	%eax, %eax
	movq	%r13, %rdi
	.loc	1 187 13                ## c_posix.c:187:13
	movq	___stderrp@GOTPCREL(%rip), %r13
	.loc	1 187 5                 ## c_posix.c:187:5
	movq	%rbx, %rdx
	callq	_fprintf
	.loc	1 188 14 is_stmt 1      ## c_posix.c:188:14
	movq	(%r13), %rdi
	.loc	1 188 5 is_stmt 0       ## c_posix.c:188:5
	movq	%r15, %rsi
Ltmp363:
	##DEBUG_VALUE: err_vsyswarn:fmt <- %RSI
	movq	%r14, %rdx
Ltmp364:
	##DEBUG_VALUE: err_vsyswarn:args <- %RDX
	callq	_vfprintf
	.loc	1 189 16 is_stmt 1      ## c_posix.c:189:16
Ltmp365:
	testl	%r12d, %r12d
	je	LBB4_2
Ltmp366:
## BB#1:
	##DEBUG_VALUE: err_vsyswarn:errnum <- %R12D
	.loc	1 190 17                ## c_posix.c:190:17
	movq	(%r13), %rbx
	.loc	1 190 46 is_stmt 0      ## c_posix.c:190:46
	movl	%r12d, %edi
	callq	_strerror
	movq	%rax, %rcx
	.loc	1 190 9                 ## c_posix.c:190:9
	leaq	L_.str.48(%rip), %rsi
	xorl	%eax, %eax
	movq	%rbx, %rdi
	movl	%r12d, %edx
	callq	_fprintf
Ltmp367:
LBB4_2:
	.loc	1 191 16 is_stmt 1      ## c_posix.c:191:16
	movq	(%r13), %rsi
	.loc	1 191 5 is_stmt 0       ## c_posix.c:191:5
	movl	$10, %edi
	addq	$8, %rsp
	popq	%rbx
	popq	%r12
	popq	%r13
	popq	%r14
	popq	%r15
	popq	%rbp
	jmp	_putc                   ## TAILCALL
Ltmp368:
Lfunc_end4:
	.cfi_endproc

	.align	4, 0x90
_err_syswarn:                           ## @err_syswarn
Lfunc_begin5:
	.loc	1 195 0 is_stmt 1       ## c_posix.c:195:0
	.cfi_startproc
## BB#0:
	pushq	%rbp
Ltmp369:
	.cfi_def_cfa_offset 16
Ltmp370:
	.cfi_offset %rbp, -16
	movq	%rsp, %rbp
Ltmp371:
	.cfi_def_cfa_register %rbp
	pushq	%rbx
	subq	$216, %rsp
Ltmp372:
	.cfi_offset %rbx, -24
	testb	%al, %al
	je	LBB5_2
## BB#1:
	movaps	%xmm0, -176(%rbp)
	movaps	%xmm1, -160(%rbp)
	movaps	%xmm2, -144(%rbp)
	movaps	%xmm3, -128(%rbp)
	movaps	%xmm4, -112(%rbp)
	movaps	%xmm5, -96(%rbp)
	movaps	%xmm6, -80(%rbp)
	movaps	%xmm7, -64(%rbp)
LBB5_2:
	movq	%r9, -184(%rbp)
	movq	%r8, -192(%rbp)
	movq	%rcx, -200(%rbp)
	movq	%rdx, -208(%rbp)
	movq	%rsi, -216(%rbp)
	movq	___stack_chk_guard@GOTPCREL(%rip), %rbx
	movq	(%rbx), %rbx
	movq	%rbx, -16(%rbp)
	leaq	-224(%rbp), %rax
	.loc	1 197 5 prologue_end    ## c_posix.c:197:5
Ltmp373:
	movq	%rax, -32(%rbp)
	leaq	16(%rbp), %rax
	movq	%rax, -40(%rbp)
	movl	$48, -44(%rbp)
	movl	$8, -48(%rbp)
	.loc	1 198 5                 ## c_posix.c:198:5
	leaq	L_.str.53(%rip), %rdi
	leaq	-48(%rbp), %rsi
Ltmp374:
	##DEBUG_VALUE: err_syswarn:args <- [%RSI+0]
	callq	_err_vsyswarn
	cmpq	-16(%rbp), %rbx
	jne	LBB5_4
Ltmp375:
## BB#3:
	.loc	1 200 1                 ## c_posix.c:200:1
	addq	$216, %rsp
	popq	%rbx
	popq	%rbp
	retq
Ltmp376:
LBB5_4:
	callq	___stack_chk_fail
Lfunc_end5:
	.cfi_endproc

	.align	4, 0x90
_exec_nth_command:                      ## @exec_nth_command
Lfunc_begin6:
	.loc	1 48 0                  ## c_posix.c:48:0
	.cfi_startproc
## BB#0:
	pushq	%rbp
Ltmp377:
	.cfi_def_cfa_offset 16
Ltmp378:
	.cfi_offset %rbp, -16
	movq	%rsp, %rbp
Ltmp379:
	.cfi_def_cfa_register %rbp
	pushq	%r15
	pushq	%r14
	pushq	%rbx
	pushq	%rax
Ltmp380:
	.cfi_offset %rbx, -40
Ltmp381:
	.cfi_offset %r14, -32
Ltmp382:
	.cfi_offset %r15, -24
	##DEBUG_VALUE: exec_nth_command:ncmds <- %EDI
	##DEBUG_VALUE: exec_nth_command:cmds <- %RSI
	movq	%rsi, %r14
Ltmp383:
	##DEBUG_VALUE: exec_nth_command:cmds <- %R14
	movl	%edi, %ebx
Ltmp384:
	##DEBUG_VALUE: exec_nth_command:ncmds <- %EBX
	.loc	1 49 5 prologue_end     ## c_posix.c:49:5
	testl	%ebx, %ebx
	jg	LBB6_1
Ltmp385:
## BB#8:
	leaq	L___func__.exec_nth_command(%rip), %rdi
	leaq	L_.str.41(%rip), %rsi
	leaq	L_.str.52(%rip), %rcx
	movl	$49, %edx
	callq	___assert_rtn
LBB6_1:
Ltmp386:
	##DEBUG_VALUE: exec_nth_command:ncmds <- %EBX
	##DEBUG_VALUE: exec_nth_command:cmds <- %R14
	.loc	1 50 9                  ## c_posix.c:50:9
	cmpl	$2, %ebx
	jl	LBB6_7
Ltmp387:
## BB#2:
	##DEBUG_VALUE: exec_nth_command:ncmds <- %EBX
	##DEBUG_VALUE: exec_nth_command:cmds <- %R14
	leaq	-32(%rbp), %rdi
Ltmp388:
	##DEBUG_VALUE: exec_pipe_command:output <- %RDI
	##DEBUG_VALUE: input <- [%RDI+0]
	.loc	1 54 13                 ## c_posix.c:54:13
	callq	_pipe
	.loc	1 54 25 is_stmt 0       ## c_posix.c:54:25
	testl	%eax, %eax
Ltmp389:
	.loc	1 54 13                 ## c_posix.c:54:13
	jne	LBB6_9
Ltmp390:
## BB#3:
	##DEBUG_VALUE: exec_nth_command:ncmds <- %EBX
	##DEBUG_VALUE: exec_nth_command:cmds <- %R14
	.loc	1 56 20 is_stmt 1       ## c_posix.c:56:20
	callq	_fork
Ltmp391:
	##DEBUG_VALUE: pid <- %EAX
	.loc	1 56 13 is_stmt 0       ## c_posix.c:56:13
	testl	%eax, %eax
	jns	LBB6_4
Ltmp392:
## BB#10:
	.loc	1 57 13 is_stmt 1       ## c_posix.c:57:13
	leaq	L_.str.53(%rip), %rdi
	xorl	%eax, %eax
	callq	_err_sysexit
Ltmp393:
LBB6_9:
	.loc	1 55 13                 ## c_posix.c:55:13
	leaq	L_.str.54(%rip), %rdi
	xorl	%eax, %eax
	callq	_err_sysexit
Ltmp394:
LBB6_4:
	##DEBUG_VALUE: exec_nth_command:ncmds <- %EBX
	##DEBUG_VALUE: exec_nth_command:cmds <- %R14
	jne	LBB6_6
Ltmp395:
## BB#5:                                ## %exec_pipe_command.exit
	##DEBUG_VALUE: exec_nth_command:ncmds <- %EBX
	##DEBUG_VALUE: exec_nth_command:cmds <- %R14
	.loc	1 61 37                 ## c_posix.c:61:37
	leal	-1(%rbx), %r15d
Ltmp396:
	##DEBUG_VALUE: exec_pipe_command:ncmds <- %R15D
	.loc	1 78 10                 ## c_posix.c:78:10
	movl	-28(%rbp), %edi
	.loc	1 78 5 is_stmt 0        ## c_posix.c:78:5
	movl	$1, %esi
	callq	_dup2
	.loc	1 79 11 is_stmt 1       ## c_posix.c:79:11
	movl	-32(%rbp), %edi
	.loc	1 79 5 is_stmt 0        ## c_posix.c:79:5
	callq	_close
	.loc	1 80 11 is_stmt 1       ## c_posix.c:80:11
	movl	-28(%rbp), %edi
	.loc	1 80 5 is_stmt 0        ## c_posix.c:80:5
	callq	_close
Ltmp397:
	##DEBUG_VALUE: exec_pipe_command:cmds <- %R14
	.loc	1 81 5 is_stmt 1        ## c_posix.c:81:5
	movl	%r15d, %edi
	movq	%r14, %rsi
	callq	_exec_nth_command
Ltmp398:
LBB6_6:
	##DEBUG_VALUE: exec_nth_command:ncmds <- %EBX
	##DEBUG_VALUE: exec_nth_command:cmds <- %R14
	.loc	1 64 14                 ## c_posix.c:64:14
	movl	-32(%rbp), %edi
	.loc	1 64 9 is_stmt 0        ## c_posix.c:64:9
	xorl	%esi, %esi
	callq	_dup2
	.loc	1 65 15 is_stmt 1       ## c_posix.c:65:15
	movl	-32(%rbp), %edi
	.loc	1 65 9 is_stmt 0        ## c_posix.c:65:9
	callq	_close
	.loc	1 66 15 is_stmt 1       ## c_posix.c:66:15
	movl	-28(%rbp), %edi
	.loc	1 66 9 is_stmt 0        ## c_posix.c:66:9
	callq	_close
Ltmp399:
LBB6_7:
	##DEBUG_VALUE: exec_nth_command:ncmds <- %EBX
	##DEBUG_VALUE: exec_nth_command:cmds <- %R14
	.loc	1 68 12 is_stmt 1       ## c_posix.c:68:12
	movslq	%ebx, %rbx
Ltmp400:
	movq	-8(%r14,%rbx,8), %rsi
	movq	(%rsi), %rdi
	.loc	1 68 5 is_stmt 0        ## c_posix.c:68:5
	callq	_execvp
	.loc	1 69 38 is_stmt 1       ## c_posix.c:69:38
	movq	-8(%r14,%rbx,8), %rax
	movq	(%rax), %rsi
	.loc	1 69 5 is_stmt 0        ## c_posix.c:69:5
	leaq	L_.str.55(%rip), %rdi
	xorl	%eax, %eax
	callq	_err_sysexit
Ltmp401:
Lfunc_end6:
	.cfi_endproc

	.globl	_isSignal               ## @isSignal
.zerofill __DATA,__common,_isSignal,4,2
	.section	__DATA,__data
	.globl	_foreground             ## @foreground
	.align	2
_foreground:
	.long	4294967295              ## 0xffffffff

	.section	__TEXT,__cstring,cstring_literals
L_.str:                                 ## @.str
	.asciz	" "

L_.str.1:                               ## @.str.1
	.asciz	"printenv"

	.section	__DATA,__const
	.align	4                       ## @main.printenv
l_main.printenv:
	.quad	L_.str.1
	.quad	0

	.section	__TEXT,__cstring,cstring_literals
L_.str.2:                               ## @.str.2
	.asciz	"sort"

	.section	__DATA,__const
	.align	4                       ## @main.sort
l_main.sort:
	.quad	L_.str.2
	.quad	0

	.section	__TEXT,__cstring,cstring_literals
L_.str.3:                               ## @.str.3
	.asciz	"less"

	.section	__DATA,__const
	.align	4                       ## @main.pager_cmd
l_main.pager_cmd:
	.quad	L_.str.3
	.quad	0

	.section	__TEXT,__cstring,cstring_literals
L_.str.4:                               ## @.str.4
	.asciz	"PATH"

L_.str.5:                               ## @.str.5
	.asciz	"'%s' is not set.\n"

L_.str.6:                               ## @.str.6
	.asciz	"'%s' is set to %s.\n"

L_.str.7:                               ## @.str.7
	.asciz	":"

L_.str.8:                               ## @.str.8
	.asciz	"/less"

L_.str.10:                              ## @.str.10
	.asciz	"miniShell>> "

L_.str.12:                              ## @.str.12
	.asciz	"exit"

L_.str.13:                              ## @.str.13
	.asciz	"cd"

L_.str.14:                              ## @.str.14
	.asciz	"Failed changing to homedirectory\n"

L_.str.15:                              ## @.str.15
	.asciz	"Failed changing directory\n"

L_.str.16:                              ## @.str.16
	.asciz	"unixinfo"

L_.str.17:                              ## @.str.17
	.asciz	"PAGER"

L_.str.18:                              ## @.str.18
	.asciz	"more"

L_.str.21:                              ## @.str.21
	.asciz	"|"

L_.str.22:                              ## @.str.22
	.asciz	"grep"

L_.str.23:                              ## @.str.23
	.asciz	"-E"

L_.str.25:                              ## @.str.25
	.asciz	"Failed creating pipe\n"

L_.str.26:                              ## @.str.26
	.asciz	"Execution time %ld.%03ld ms\n"

L_.str.27:                              ## @.str.27
	.asciz	"Received SIGINT\n"

L_.str.28:                              ## @.str.28
	.asciz	"\n\n\n\n%d terminated \n\n\n\n\n"

L_.str.29:                              ## @.str.29
	.asciz	"Failed creating pipe"

L_.str.30:                              ## @.str.30
	.asciz	"dup2() failed on stdin for %s: "

L_.str.31:                              ## @.str.31
	.asciz	"%d: executing %s\n"

L_.str.32:                              ## @.str.32
	.asciz	"failed to execute %s: "

L_.str.33:                              ## @.str.33
	.asciz	"(%d: %s)\n"

L_.str.34:                              ## @.str.34
	.asciz	"dup2() failed on stdout for %s: "

L_.str.35:                              ## @.str.35
	.asciz	"fork failed: "

	.section	__DATA,__data
	.align	3                       ## @arg0
_arg0:
	.quad	L_.str.36

	.section	__TEXT,__cstring,cstring_literals
L_.str.36:                              ## @.str.36
	.asciz	"<undefined>"

L_.str.37:                              ## @.str.37
	.asciz	"Entering exec_arguments"

L_.str.38:                              ## @.str.38
	.asciz	"Syntax error: pipe before any command"

L_.str.39:                              ## @.str.39
	.asciz	"Syntax error: two pipes with no command between"

L_.str.40:                              ## @.str.40
	.asciz	"Syntax error: pipe with no command following"

L_.str.41:                              ## @.str.41
	.asciz	"c_posix.c"

L_.str.43:                              ## @.str.43
	.asciz	"%s: (%d)"

L_.str.44:                              ## @.str.44
	.asciz	" {%s}"

L_.str.45:                              ## @.str.45
	.asciz	"(null)"

L_.str.47:                              ## @.str.47
	.asciz	"%s:%d: "

L_.str.48:                              ## @.str.48
	.asciz	" (%d: %s)"

L_.str.50:                              ## @.str.50
	.asciz	"cmd [%d]"

L___func__.exec_pipeline:               ## @__func__.exec_pipeline
	.asciz	"exec_pipeline"

L_.str.52:                              ## @.str.52
	.asciz	"ncmds >= 1"

L_.str.53:                              ## @.str.53
	.asciz	"Failed to fork"

L___func__.exec_nth_command:            ## @__func__.exec_nth_command
	.asciz	"exec_nth_command"

L_.str.54:                              ## @.str.54
	.asciz	"Failed to create pipe"

L_.str.55:                              ## @.str.55
	.asciz	"Failed to exec %s"

L_.str.56:                              ## @.str.56
	.asciz	"%d: child %d status 0x%.4X\n"

L_str:                                  ## @str
	.asciz	"malloc failed!"

L_str.57:                               ## @str.57
	.asciz	"SOC"

L_str.58:                               ## @str.58
	.asciz	"EOC"

	.file	15 "/usr/include" "signal.h"
	.file	16 "/usr/include/sys" "signal.h"
	.file	17 "/usr/include/sys/_types" "_sigset_t.h"
	.file	18 "/usr/include/sys/_types" "_size_t.h"
	.file	19 "/usr/include" "pwd.h"
	.file	20 "/usr/include/sys/_types" "_timeval.h"
	.file	21 "/usr/include/sys/_types" "_va_list.h"